
ctarget:     file format elf64-x86-64


Disassembly of section .init:

0000000000400c48 <_init>:
  400c48:	48 83 ec 08          	sub    $0x8,%rsp
  400c4c:	48 8b 05 a5 33 20 00 	mov    0x2033a5(%rip),%rax        # 603ff8 <__gmon_start__>
  400c53:	48 85 c0             	test   %rax,%rax
  400c56:	74 02                	je     400c5a <_init+0x12>
  400c58:	ff d0                	callq  *%rax
  400c5a:	48 83 c4 08          	add    $0x8,%rsp
  400c5e:	c3                   	retq   

Disassembly of section .plt:

0000000000400c60 <.plt>:
  400c60:	ff 35 a2 33 20 00    	pushq  0x2033a2(%rip)        # 604008 <_GLOBAL_OFFSET_TABLE_+0x8>
  400c66:	ff 25 a4 33 20 00    	jmpq   *0x2033a4(%rip)        # 604010 <_GLOBAL_OFFSET_TABLE_+0x10>
  400c6c:	0f 1f 40 00          	nopl   0x0(%rax)

0000000000400c70 <strcasecmp@plt>:
  400c70:	ff 25 a2 33 20 00    	jmpq   *0x2033a2(%rip)        # 604018 <strcasecmp@GLIBC_2.2.5>
  400c76:	68 00 00 00 00       	pushq  $0x0
  400c7b:	e9 e0 ff ff ff       	jmpq   400c60 <.plt>

0000000000400c80 <__errno_location@plt>:
  400c80:	ff 25 9a 33 20 00    	jmpq   *0x20339a(%rip)        # 604020 <__errno_location@GLIBC_2.2.5>
  400c86:	68 01 00 00 00       	pushq  $0x1
  400c8b:	e9 d0 ff ff ff       	jmpq   400c60 <.plt>

0000000000400c90 <srandom@plt>:
  400c90:	ff 25 92 33 20 00    	jmpq   *0x203392(%rip)        # 604028 <srandom@GLIBC_2.2.5>
  400c96:	68 02 00 00 00       	pushq  $0x2
  400c9b:	e9 c0 ff ff ff       	jmpq   400c60 <.plt>

0000000000400ca0 <strncmp@plt>:
  400ca0:	ff 25 8a 33 20 00    	jmpq   *0x20338a(%rip)        # 604030 <strncmp@GLIBC_2.2.5>
  400ca6:	68 03 00 00 00       	pushq  $0x3
  400cab:	e9 b0 ff ff ff       	jmpq   400c60 <.plt>

0000000000400cb0 <strcpy@plt>:
  400cb0:	ff 25 82 33 20 00    	jmpq   *0x203382(%rip)        # 604038 <strcpy@GLIBC_2.2.5>
  400cb6:	68 04 00 00 00       	pushq  $0x4
  400cbb:	e9 a0 ff ff ff       	jmpq   400c60 <.plt>

0000000000400cc0 <puts@plt>:
  400cc0:	ff 25 7a 33 20 00    	jmpq   *0x20337a(%rip)        # 604040 <puts@GLIBC_2.2.5>
  400cc6:	68 05 00 00 00       	pushq  $0x5
  400ccb:	e9 90 ff ff ff       	jmpq   400c60 <.plt>

0000000000400cd0 <write@plt>:
  400cd0:	ff 25 72 33 20 00    	jmpq   *0x203372(%rip)        # 604048 <write@GLIBC_2.2.5>
  400cd6:	68 06 00 00 00       	pushq  $0x6
  400cdb:	e9 80 ff ff ff       	jmpq   400c60 <.plt>

0000000000400ce0 <__stack_chk_fail@plt>:
  400ce0:	ff 25 6a 33 20 00    	jmpq   *0x20336a(%rip)        # 604050 <__stack_chk_fail@GLIBC_2.4>
  400ce6:	68 07 00 00 00       	pushq  $0x7
  400ceb:	e9 70 ff ff ff       	jmpq   400c60 <.plt>

0000000000400cf0 <mmap@plt>:
  400cf0:	ff 25 62 33 20 00    	jmpq   *0x203362(%rip)        # 604058 <mmap@GLIBC_2.2.5>
  400cf6:	68 08 00 00 00       	pushq  $0x8
  400cfb:	e9 60 ff ff ff       	jmpq   400c60 <.plt>

0000000000400d00 <memset@plt>:
  400d00:	ff 25 5a 33 20 00    	jmpq   *0x20335a(%rip)        # 604060 <memset@GLIBC_2.2.5>
  400d06:	68 09 00 00 00       	pushq  $0x9
  400d0b:	e9 50 ff ff ff       	jmpq   400c60 <.plt>

0000000000400d10 <alarm@plt>:
  400d10:	ff 25 52 33 20 00    	jmpq   *0x203352(%rip)        # 604068 <alarm@GLIBC_2.2.5>
  400d16:	68 0a 00 00 00       	pushq  $0xa
  400d1b:	e9 40 ff ff ff       	jmpq   400c60 <.plt>

0000000000400d20 <close@plt>:
  400d20:	ff 25 4a 33 20 00    	jmpq   *0x20334a(%rip)        # 604070 <close@GLIBC_2.2.5>
  400d26:	68 0b 00 00 00       	pushq  $0xb
  400d2b:	e9 30 ff ff ff       	jmpq   400c60 <.plt>

0000000000400d30 <read@plt>:
  400d30:	ff 25 42 33 20 00    	jmpq   *0x203342(%rip)        # 604078 <read@GLIBC_2.2.5>
  400d36:	68 0c 00 00 00       	pushq  $0xc
  400d3b:	e9 20 ff ff ff       	jmpq   400c60 <.plt>

0000000000400d40 <signal@plt>:
  400d40:	ff 25 3a 33 20 00    	jmpq   *0x20333a(%rip)        # 604080 <signal@GLIBC_2.2.5>
  400d46:	68 0d 00 00 00       	pushq  $0xd
  400d4b:	e9 10 ff ff ff       	jmpq   400c60 <.plt>

0000000000400d50 <gethostbyname@plt>:
  400d50:	ff 25 32 33 20 00    	jmpq   *0x203332(%rip)        # 604088 <gethostbyname@GLIBC_2.2.5>
  400d56:	68 0e 00 00 00       	pushq  $0xe
  400d5b:	e9 00 ff ff ff       	jmpq   400c60 <.plt>

0000000000400d60 <__memmove_chk@plt>:
  400d60:	ff 25 2a 33 20 00    	jmpq   *0x20332a(%rip)        # 604090 <__memmove_chk@GLIBC_2.3.4>
  400d66:	68 0f 00 00 00       	pushq  $0xf
  400d6b:	e9 f0 fe ff ff       	jmpq   400c60 <.plt>

0000000000400d70 <strtol@plt>:
  400d70:	ff 25 22 33 20 00    	jmpq   *0x203322(%rip)        # 604098 <strtol@GLIBC_2.2.5>
  400d76:	68 10 00 00 00       	pushq  $0x10
  400d7b:	e9 e0 fe ff ff       	jmpq   400c60 <.plt>

0000000000400d80 <memcpy@plt>:
  400d80:	ff 25 1a 33 20 00    	jmpq   *0x20331a(%rip)        # 6040a0 <memcpy@GLIBC_2.14>
  400d86:	68 11 00 00 00       	pushq  $0x11
  400d8b:	e9 d0 fe ff ff       	jmpq   400c60 <.plt>

0000000000400d90 <time@plt>:
  400d90:	ff 25 12 33 20 00    	jmpq   *0x203312(%rip)        # 6040a8 <time@GLIBC_2.2.5>
  400d96:	68 12 00 00 00       	pushq  $0x12
  400d9b:	e9 c0 fe ff ff       	jmpq   400c60 <.plt>

0000000000400da0 <random@plt>:
  400da0:	ff 25 0a 33 20 00    	jmpq   *0x20330a(%rip)        # 6040b0 <random@GLIBC_2.2.5>
  400da6:	68 13 00 00 00       	pushq  $0x13
  400dab:	e9 b0 fe ff ff       	jmpq   400c60 <.plt>

0000000000400db0 <_IO_getc@plt>:
  400db0:	ff 25 02 33 20 00    	jmpq   *0x203302(%rip)        # 6040b8 <_IO_getc@GLIBC_2.2.5>
  400db6:	68 14 00 00 00       	pushq  $0x14
  400dbb:	e9 a0 fe ff ff       	jmpq   400c60 <.plt>

0000000000400dc0 <__isoc99_sscanf@plt>:
  400dc0:	ff 25 fa 32 20 00    	jmpq   *0x2032fa(%rip)        # 6040c0 <__isoc99_sscanf@GLIBC_2.7>
  400dc6:	68 15 00 00 00       	pushq  $0x15
  400dcb:	e9 90 fe ff ff       	jmpq   400c60 <.plt>

0000000000400dd0 <munmap@plt>:
  400dd0:	ff 25 f2 32 20 00    	jmpq   *0x2032f2(%rip)        # 6040c8 <munmap@GLIBC_2.2.5>
  400dd6:	68 16 00 00 00       	pushq  $0x16
  400ddb:	e9 80 fe ff ff       	jmpq   400c60 <.plt>

0000000000400de0 <__printf_chk@plt>:
  400de0:	ff 25 ea 32 20 00    	jmpq   *0x2032ea(%rip)        # 6040d0 <__printf_chk@GLIBC_2.3.4>
  400de6:	68 17 00 00 00       	pushq  $0x17
  400deb:	e9 70 fe ff ff       	jmpq   400c60 <.plt>

0000000000400df0 <fopen@plt>:
  400df0:	ff 25 e2 32 20 00    	jmpq   *0x2032e2(%rip)        # 6040d8 <fopen@GLIBC_2.2.5>
  400df6:	68 18 00 00 00       	pushq  $0x18
  400dfb:	e9 60 fe ff ff       	jmpq   400c60 <.plt>

0000000000400e00 <getopt@plt>:
  400e00:	ff 25 da 32 20 00    	jmpq   *0x2032da(%rip)        # 6040e0 <getopt@GLIBC_2.2.5>
  400e06:	68 19 00 00 00       	pushq  $0x19
  400e0b:	e9 50 fe ff ff       	jmpq   400c60 <.plt>

0000000000400e10 <strtoul@plt>:
  400e10:	ff 25 d2 32 20 00    	jmpq   *0x2032d2(%rip)        # 6040e8 <strtoul@GLIBC_2.2.5>
  400e16:	68 1a 00 00 00       	pushq  $0x1a
  400e1b:	e9 40 fe ff ff       	jmpq   400c60 <.plt>

0000000000400e20 <gethostname@plt>:
  400e20:	ff 25 ca 32 20 00    	jmpq   *0x2032ca(%rip)        # 6040f0 <gethostname@GLIBC_2.2.5>
  400e26:	68 1b 00 00 00       	pushq  $0x1b
  400e2b:	e9 30 fe ff ff       	jmpq   400c60 <.plt>

0000000000400e30 <exit@plt>:
  400e30:	ff 25 c2 32 20 00    	jmpq   *0x2032c2(%rip)        # 6040f8 <exit@GLIBC_2.2.5>
  400e36:	68 1c 00 00 00       	pushq  $0x1c
  400e3b:	e9 20 fe ff ff       	jmpq   400c60 <.plt>

0000000000400e40 <connect@plt>:
  400e40:	ff 25 ba 32 20 00    	jmpq   *0x2032ba(%rip)        # 604100 <connect@GLIBC_2.2.5>
  400e46:	68 1d 00 00 00       	pushq  $0x1d
  400e4b:	e9 10 fe ff ff       	jmpq   400c60 <.plt>

0000000000400e50 <__fprintf_chk@plt>:
  400e50:	ff 25 b2 32 20 00    	jmpq   *0x2032b2(%rip)        # 604108 <__fprintf_chk@GLIBC_2.3.4>
  400e56:	68 1e 00 00 00       	pushq  $0x1e
  400e5b:	e9 00 fe ff ff       	jmpq   400c60 <.plt>

0000000000400e60 <__sprintf_chk@plt>:
  400e60:	ff 25 aa 32 20 00    	jmpq   *0x2032aa(%rip)        # 604110 <__sprintf_chk@GLIBC_2.3.4>
  400e66:	68 1f 00 00 00       	pushq  $0x1f
  400e6b:	e9 f0 fd ff ff       	jmpq   400c60 <.plt>

0000000000400e70 <socket@plt>:
  400e70:	ff 25 a2 32 20 00    	jmpq   *0x2032a2(%rip)        # 604118 <socket@GLIBC_2.2.5>
  400e76:	68 20 00 00 00       	pushq  $0x20
  400e7b:	e9 e0 fd ff ff       	jmpq   400c60 <.plt>

Disassembly of section .text:

0000000000400e80 <_start>:
  400e80:	31 ed                	xor    %ebp,%ebp
  400e82:	49 89 d1             	mov    %rdx,%r9
  400e85:	5e                   	pop    %rsi
  400e86:	48 89 e2             	mov    %rsp,%rdx
  400e89:	48 83 e4 f0          	and    $0xfffffffffffffff0,%rsp
  400e8d:	50                   	push   %rax
  400e8e:	54                   	push   %rsp
  400e8f:	49 c7 c0 a0 2d 40 00 	mov    $0x402da0,%r8
  400e96:	48 c7 c1 30 2d 40 00 	mov    $0x402d30,%rcx
  400e9d:	48 c7 c7 73 11 40 00 	mov    $0x401173,%rdi
  400ea4:	ff 15 46 31 20 00    	callq  *0x203146(%rip)        # 603ff0 <__libc_start_main@GLIBC_2.2.5>
  400eaa:	f4                   	hlt    
  400eab:	0f 1f 44 00 00       	nopl   0x0(%rax,%rax,1)

0000000000400eb0 <_dl_relocate_static_pie>:
  400eb0:	f3 c3                	repz retq 
  400eb2:	66 2e 0f 1f 84 00 00 	nopw   %cs:0x0(%rax,%rax,1)
  400eb9:	00 00 00 
  400ebc:	0f 1f 40 00          	nopl   0x0(%rax)

0000000000400ec0 <deregister_tm_clones>:
  400ec0:	55                   	push   %rbp
  400ec1:	b8 90 44 60 00       	mov    $0x604490,%eax
  400ec6:	48 3d 90 44 60 00    	cmp    $0x604490,%rax
  400ecc:	48 89 e5             	mov    %rsp,%rbp
  400ecf:	74 17                	je     400ee8 <deregister_tm_clones+0x28>
  400ed1:	b8 00 00 00 00       	mov    $0x0,%eax
  400ed6:	48 85 c0             	test   %rax,%rax
  400ed9:	74 0d                	je     400ee8 <deregister_tm_clones+0x28>
  400edb:	5d                   	pop    %rbp
  400edc:	bf 90 44 60 00       	mov    $0x604490,%edi
  400ee1:	ff e0                	jmpq   *%rax
  400ee3:	0f 1f 44 00 00       	nopl   0x0(%rax,%rax,1)
  400ee8:	5d                   	pop    %rbp
  400ee9:	c3                   	retq   
  400eea:	66 0f 1f 44 00 00    	nopw   0x0(%rax,%rax,1)

0000000000400ef0 <register_tm_clones>:
  400ef0:	be 90 44 60 00       	mov    $0x604490,%esi
  400ef5:	55                   	push   %rbp
  400ef6:	48 81 ee 90 44 60 00 	sub    $0x604490,%rsi
  400efd:	48 89 e5             	mov    %rsp,%rbp
  400f00:	48 c1 fe 03          	sar    $0x3,%rsi
  400f04:	48 89 f0             	mov    %rsi,%rax
  400f07:	48 c1 e8 3f          	shr    $0x3f,%rax
  400f0b:	48 01 c6             	add    %rax,%rsi
  400f0e:	48 d1 fe             	sar    %rsi
  400f11:	74 15                	je     400f28 <register_tm_clones+0x38>
  400f13:	b8 00 00 00 00       	mov    $0x0,%eax
  400f18:	48 85 c0             	test   %rax,%rax
  400f1b:	74 0b                	je     400f28 <register_tm_clones+0x38>
  400f1d:	5d                   	pop    %rbp
  400f1e:	bf 90 44 60 00       	mov    $0x604490,%edi
  400f23:	ff e0                	jmpq   *%rax
  400f25:	0f 1f 00             	nopl   (%rax)
  400f28:	5d                   	pop    %rbp
  400f29:	c3                   	retq   
  400f2a:	66 0f 1f 44 00 00    	nopw   0x0(%rax,%rax,1)

0000000000400f30 <__do_global_dtors_aux>:
  400f30:	80 3d 91 35 20 00 00 	cmpb   $0x0,0x203591(%rip)        # 6044c8 <completed.7698>
  400f37:	75 17                	jne    400f50 <__do_global_dtors_aux+0x20>
  400f39:	55                   	push   %rbp
  400f3a:	48 89 e5             	mov    %rsp,%rbp
  400f3d:	e8 7e ff ff ff       	callq  400ec0 <deregister_tm_clones>
  400f42:	c6 05 7f 35 20 00 01 	movb   $0x1,0x20357f(%rip)        # 6044c8 <completed.7698>
  400f49:	5d                   	pop    %rbp
  400f4a:	c3                   	retq   
  400f4b:	0f 1f 44 00 00       	nopl   0x0(%rax,%rax,1)
  400f50:	f3 c3                	repz retq 
  400f52:	0f 1f 40 00          	nopl   0x0(%rax)
  400f56:	66 2e 0f 1f 84 00 00 	nopw   %cs:0x0(%rax,%rax,1)
  400f5d:	00 00 00 

0000000000400f60 <frame_dummy>:
  400f60:	55                   	push   %rbp
  400f61:	48 89 e5             	mov    %rsp,%rbp
  400f64:	5d                   	pop    %rbp
  400f65:	eb 89                	jmp    400ef0 <register_tm_clones>

0000000000400f67 <usage>:
  400f67:	48 83 ec 08          	sub    $0x8,%rsp
  400f6b:	48 89 fa             	mov    %rdi,%rdx
  400f6e:	83 3d 93 35 20 00 00 	cmpl   $0x0,0x203593(%rip)        # 604508 <is_checker>
  400f75:	74 46                	je     400fbd <usage+0x56>
  400f77:	be b8 2d 40 00       	mov    $0x402db8,%esi
  400f7c:	bf 01 00 00 00       	mov    $0x1,%edi
  400f81:	b8 00 00 00 00       	mov    $0x0,%eax
  400f86:	e8 55 fe ff ff       	callq  400de0 <__printf_chk@plt>
  400f8b:	bf f0 2d 40 00       	mov    $0x402df0,%edi
  400f90:	e8 2b fd ff ff       	callq  400cc0 <puts@plt>
  400f95:	bf 68 2f 40 00       	mov    $0x402f68,%edi
  400f9a:	e8 21 fd ff ff       	callq  400cc0 <puts@plt>
  400f9f:	bf 18 2e 40 00       	mov    $0x402e18,%edi
  400fa4:	e8 17 fd ff ff       	callq  400cc0 <puts@plt>
  400fa9:	bf 82 2f 40 00       	mov    $0x402f82,%edi
  400fae:	e8 0d fd ff ff       	callq  400cc0 <puts@plt>
  400fb3:	bf 00 00 00 00       	mov    $0x0,%edi
  400fb8:	e8 73 fe ff ff       	callq  400e30 <exit@plt>
  400fbd:	be 9e 2f 40 00       	mov    $0x402f9e,%esi
  400fc2:	bf 01 00 00 00       	mov    $0x1,%edi
  400fc7:	b8 00 00 00 00       	mov    $0x0,%eax
  400fcc:	e8 0f fe ff ff       	callq  400de0 <__printf_chk@plt>
  400fd1:	bf 40 2e 40 00       	mov    $0x402e40,%edi
  400fd6:	e8 e5 fc ff ff       	callq  400cc0 <puts@plt>
  400fdb:	bf 68 2e 40 00       	mov    $0x402e68,%edi
  400fe0:	e8 db fc ff ff       	callq  400cc0 <puts@plt>
  400fe5:	bf bc 2f 40 00       	mov    $0x402fbc,%edi
  400fea:	e8 d1 fc ff ff       	callq  400cc0 <puts@plt>
  400fef:	eb c2                	jmp    400fb3 <usage+0x4c>

0000000000400ff1 <initialize_target>:
  400ff1:	55                   	push   %rbp
  400ff2:	53                   	push   %rbx
  400ff3:	48 81 ec 18 21 00 00 	sub    $0x2118,%rsp
  400ffa:	89 f5                	mov    %esi,%ebp
  400ffc:	64 48 8b 04 25 28 00 	mov    %fs:0x28,%rax
  401003:	00 00 
  401005:	48 89 84 24 08 21 00 	mov    %rax,0x2108(%rsp)
  40100c:	00 
  40100d:	31 c0                	xor    %eax,%eax
  40100f:	89 3d e3 34 20 00    	mov    %edi,0x2034e3(%rip)        # 6044f8 <check_level>
  401015:	8b 3d 2d 31 20 00    	mov    0x20312d(%rip),%edi        # 604148 <target_id>
  40101b:	e8 e8 1c 00 00       	callq  402d08 <gencookie>
  401020:	89 05 de 34 20 00    	mov    %eax,0x2034de(%rip)        # 604504 <cookie>
  401026:	89 c7                	mov    %eax,%edi
  401028:	e8 db 1c 00 00       	callq  402d08 <gencookie>
  40102d:	89 05 cd 34 20 00    	mov    %eax,0x2034cd(%rip)        # 604500 <authkey>
  401033:	8b 05 0f 31 20 00    	mov    0x20310f(%rip),%eax        # 604148 <target_id>
  401039:	8d 78 01             	lea    0x1(%rax),%edi
  40103c:	e8 4f fc ff ff       	callq  400c90 <srandom@plt>
  401041:	e8 5a fd ff ff       	callq  400da0 <random@plt>
  401046:	89 c7                	mov    %eax,%edi
  401048:	e8 f2 02 00 00       	callq  40133f <scramble>
  40104d:	89 c3                	mov    %eax,%ebx
  40104f:	85 ed                	test   %ebp,%ebp
  401051:	75 54                	jne    4010a7 <initialize_target+0xb6>
  401053:	b8 00 00 00 00       	mov    $0x0,%eax
  401058:	01 d8                	add    %ebx,%eax
  40105a:	0f b7 c0             	movzwl %ax,%eax
  40105d:	8d 04 c5 00 01 00 00 	lea    0x100(,%rax,8),%eax
  401064:	89 c0                	mov    %eax,%eax
  401066:	48 89 05 13 34 20 00 	mov    %rax,0x203413(%rip)        # 604480 <buf_offset>
  40106d:	c6 05 b4 40 20 00 63 	movb   $0x63,0x2040b4(%rip)        # 605128 <target_prefix>
  401074:	83 3d 0d 34 20 00 00 	cmpl   $0x0,0x20340d(%rip)        # 604488 <notify>
  40107b:	74 09                	je     401086 <initialize_target+0x95>
  40107d:	83 3d 84 34 20 00 00 	cmpl   $0x0,0x203484(%rip)        # 604508 <is_checker>
  401084:	74 39                	je     4010bf <initialize_target+0xce>
  401086:	48 8b 84 24 08 21 00 	mov    0x2108(%rsp),%rax
  40108d:	00 
  40108e:	64 48 33 04 25 28 00 	xor    %fs:0x28,%rax
  401095:	00 00 
  401097:	0f 85 d1 00 00 00    	jne    40116e <initialize_target+0x17d>
  40109d:	48 81 c4 18 21 00 00 	add    $0x2118,%rsp
  4010a4:	5b                   	pop    %rbx
  4010a5:	5d                   	pop    %rbp
  4010a6:	c3                   	retq   
  4010a7:	bf 00 00 00 00       	mov    $0x0,%edi
  4010ac:	e8 df fc ff ff       	callq  400d90 <time@plt>
  4010b1:	89 c7                	mov    %eax,%edi
  4010b3:	e8 d8 fb ff ff       	callq  400c90 <srandom@plt>
  4010b8:	e8 e3 fc ff ff       	callq  400da0 <random@plt>
  4010bd:	eb 99                	jmp    401058 <initialize_target+0x67>
  4010bf:	be 00 01 00 00       	mov    $0x100,%esi
  4010c4:	48 89 e7             	mov    %rsp,%rdi
  4010c7:	e8 54 fd ff ff       	callq  400e20 <gethostname@plt>
  4010cc:	89 c5                	mov    %eax,%ebp
  4010ce:	85 c0                	test   %eax,%eax
  4010d0:	75 23                	jne    4010f5 <initialize_target+0x104>
  4010d2:	89 c3                	mov    %eax,%ebx
  4010d4:	48 63 c3             	movslq %ebx,%rax
  4010d7:	48 8b 3c c5 60 41 60 	mov    0x604160(,%rax,8),%rdi
  4010de:	00 
  4010df:	48 85 ff             	test   %rdi,%rdi
  4010e2:	74 2a                	je     40110e <initialize_target+0x11d>
  4010e4:	48 89 e6             	mov    %rsp,%rsi
  4010e7:	e8 84 fb ff ff       	callq  400c70 <strcasecmp@plt>
  4010ec:	85 c0                	test   %eax,%eax
  4010ee:	74 19                	je     401109 <initialize_target+0x118>
  4010f0:	83 c3 01             	add    $0x1,%ebx
  4010f3:	eb df                	jmp    4010d4 <initialize_target+0xe3>
  4010f5:	bf 98 2e 40 00       	mov    $0x402e98,%edi
  4010fa:	e8 c1 fb ff ff       	callq  400cc0 <puts@plt>
  4010ff:	bf 08 00 00 00       	mov    $0x8,%edi
  401104:	e8 27 fd ff ff       	callq  400e30 <exit@plt>
  401109:	bd 01 00 00 00       	mov    $0x1,%ebp
  40110e:	85 ed                	test   %ebp,%ebp
  401110:	74 3b                	je     40114d <initialize_target+0x15c>
  401112:	48 8d bc 24 00 01 00 	lea    0x100(%rsp),%rdi
  401119:	00 
  40111a:	e8 3e 19 00 00       	callq  402a5d <init_driver>
  40111f:	85 c0                	test   %eax,%eax
  401121:	0f 89 5f ff ff ff    	jns    401086 <initialize_target+0x95>
  401127:	48 8d 94 24 00 01 00 	lea    0x100(%rsp),%rdx
  40112e:	00 
  40112f:	be 10 2f 40 00       	mov    $0x402f10,%esi
  401134:	bf 01 00 00 00       	mov    $0x1,%edi
  401139:	b8 00 00 00 00       	mov    $0x0,%eax
  40113e:	e8 9d fc ff ff       	callq  400de0 <__printf_chk@plt>
  401143:	bf 08 00 00 00       	mov    $0x8,%edi
  401148:	e8 e3 fc ff ff       	callq  400e30 <exit@plt>
  40114d:	48 89 e2             	mov    %rsp,%rdx
  401150:	be d0 2e 40 00       	mov    $0x402ed0,%esi
  401155:	bf 01 00 00 00       	mov    $0x1,%edi
  40115a:	b8 00 00 00 00       	mov    $0x0,%eax
  40115f:	e8 7c fc ff ff       	callq  400de0 <__printf_chk@plt>
  401164:	bf 08 00 00 00       	mov    $0x8,%edi
  401169:	e8 c2 fc ff ff       	callq  400e30 <exit@plt>
  40116e:	e8 6d fb ff ff       	callq  400ce0 <__stack_chk_fail@plt>

0000000000401173 <main>:
  401173:	41 56                	push   %r14
  401175:	41 55                	push   %r13
  401177:	41 54                	push   %r12
  401179:	55                   	push   %rbp
  40117a:	53                   	push   %rbx
  40117b:	41 89 fc             	mov    %edi,%r12d
  40117e:	48 89 f3             	mov    %rsi,%rbx
  401181:	be 9a 1d 40 00       	mov    $0x401d9a,%esi
  401186:	bf 0b 00 00 00       	mov    $0xb,%edi
  40118b:	e8 b0 fb ff ff       	callq  400d40 <signal@plt>
  401190:	be 4c 1d 40 00       	mov    $0x401d4c,%esi
  401195:	bf 07 00 00 00       	mov    $0x7,%edi
  40119a:	e8 a1 fb ff ff       	callq  400d40 <signal@plt>
  40119f:	be e8 1d 40 00       	mov    $0x401de8,%esi
  4011a4:	bf 04 00 00 00       	mov    $0x4,%edi
  4011a9:	e8 92 fb ff ff       	callq  400d40 <signal@plt>
  4011ae:	83 3d 53 33 20 00 00 	cmpl   $0x0,0x203353(%rip)        # 604508 <is_checker>
  4011b5:	75 24                	jne    4011db <main+0x68>
  4011b7:	bd d5 2f 40 00       	mov    $0x402fd5,%ebp
  4011bc:	48 8b 05 dd 32 20 00 	mov    0x2032dd(%rip),%rax        # 6044a0 <stdin@@GLIBC_2.2.5>
  4011c3:	48 89 05 26 33 20 00 	mov    %rax,0x203326(%rip)        # 6044f0 <infile>
  4011ca:	41 bd 00 00 00 00    	mov    $0x0,%r13d
  4011d0:	41 be 00 00 00 00    	mov    $0x0,%r14d
  4011d6:	e9 85 00 00 00       	jmpq   401260 <main+0xed>
  4011db:	be 36 1e 40 00       	mov    $0x401e36,%esi
  4011e0:	bf 0e 00 00 00       	mov    $0xe,%edi
  4011e5:	e8 56 fb ff ff       	callq  400d40 <signal@plt>
  4011ea:	bf 05 00 00 00       	mov    $0x5,%edi
  4011ef:	e8 1c fb ff ff       	callq  400d10 <alarm@plt>
  4011f4:	bd da 2f 40 00       	mov    $0x402fda,%ebp
  4011f9:	eb c1                	jmp    4011bc <main+0x49>
  4011fb:	48 8b 3b             	mov    (%rbx),%rdi
  4011fe:	e8 64 fd ff ff       	callq  400f67 <usage>
  401203:	be a5 32 40 00       	mov    $0x4032a5,%esi
  401208:	48 8b 3d 99 32 20 00 	mov    0x203299(%rip),%rdi        # 6044a8 <optarg@@GLIBC_2.2.5>
  40120f:	e8 dc fb ff ff       	callq  400df0 <fopen@plt>
  401214:	48 89 05 d5 32 20 00 	mov    %rax,0x2032d5(%rip)        # 6044f0 <infile>
  40121b:	48 85 c0             	test   %rax,%rax
  40121e:	75 40                	jne    401260 <main+0xed>
  401220:	48 8b 0d 81 32 20 00 	mov    0x203281(%rip),%rcx        # 6044a8 <optarg@@GLIBC_2.2.5>
  401227:	ba e2 2f 40 00       	mov    $0x402fe2,%edx
  40122c:	be 01 00 00 00       	mov    $0x1,%esi
  401231:	48 8b 3d 88 32 20 00 	mov    0x203288(%rip),%rdi        # 6044c0 <stderr@@GLIBC_2.2.5>
  401238:	e8 13 fc ff ff       	callq  400e50 <__fprintf_chk@plt>
  40123d:	b8 01 00 00 00       	mov    $0x1,%eax
  401242:	e9 cc 00 00 00       	jmpq   401313 <main+0x1a0>
  401247:	ba 10 00 00 00       	mov    $0x10,%edx
  40124c:	be 00 00 00 00       	mov    $0x0,%esi
  401251:	48 8b 3d 50 32 20 00 	mov    0x203250(%rip),%rdi        # 6044a8 <optarg@@GLIBC_2.2.5>
  401258:	e8 b3 fb ff ff       	callq  400e10 <strtoul@plt>
  40125d:	41 89 c6             	mov    %eax,%r14d
  401260:	48 89 ea             	mov    %rbp,%rdx
  401263:	48 89 de             	mov    %rbx,%rsi
  401266:	44 89 e7             	mov    %r12d,%edi
  401269:	e8 92 fb ff ff       	callq  400e00 <getopt@plt>
  40126e:	3c ff                	cmp    $0xff,%al
  401270:	74 57                	je     4012c9 <main+0x156>
  401272:	0f be d0             	movsbl %al,%edx
  401275:	83 e8 61             	sub    $0x61,%eax
  401278:	3c 10                	cmp    $0x10,%al
  40127a:	77 31                	ja     4012ad <main+0x13a>
  40127c:	0f b6 c0             	movzbl %al,%eax
  40127f:	ff 24 c5 20 30 40 00 	jmpq   *0x403020(,%rax,8)
  401286:	ba 0a 00 00 00       	mov    $0xa,%edx
  40128b:	be 00 00 00 00       	mov    $0x0,%esi
  401290:	48 8b 3d 11 32 20 00 	mov    0x203211(%rip),%rdi        # 6044a8 <optarg@@GLIBC_2.2.5>
  401297:	e8 d4 fa ff ff       	callq  400d70 <strtol@plt>
  40129c:	41 89 c5             	mov    %eax,%r13d
  40129f:	eb bf                	jmp    401260 <main+0xed>
  4012a1:	c7 05 dd 31 20 00 00 	movl   $0x0,0x2031dd(%rip)        # 604488 <notify>
  4012a8:	00 00 00 
  4012ab:	eb b3                	jmp    401260 <main+0xed>
  4012ad:	be ff 2f 40 00       	mov    $0x402fff,%esi
  4012b2:	bf 01 00 00 00       	mov    $0x1,%edi
  4012b7:	b8 00 00 00 00       	mov    $0x0,%eax
  4012bc:	e8 1f fb ff ff       	callq  400de0 <__printf_chk@plt>
  4012c1:	48 8b 3b             	mov    (%rbx),%rdi
  4012c4:	e8 9e fc ff ff       	callq  400f67 <usage>
  4012c9:	be 00 00 00 00       	mov    $0x0,%esi
  4012ce:	44 89 ef             	mov    %r13d,%edi
  4012d1:	e8 1b fd ff ff       	callq  400ff1 <initialize_target>
  4012d6:	83 3d 2b 32 20 00 00 	cmpl   $0x0,0x20322b(%rip)        # 604508 <is_checker>
  4012dd:	74 09                	je     4012e8 <main+0x175>
  4012df:	44 39 35 1a 32 20 00 	cmp    %r14d,0x20321a(%rip)        # 604500 <authkey>
  4012e6:	75 34                	jne    40131c <main+0x1a9>
  4012e8:	8b 15 16 32 20 00    	mov    0x203216(%rip),%edx        # 604504 <cookie>
  4012ee:	be 12 30 40 00       	mov    $0x403012,%esi
  4012f3:	bf 01 00 00 00       	mov    $0x1,%edi
  4012f8:	b8 00 00 00 00       	mov    $0x0,%eax
  4012fd:	e8 de fa ff ff       	callq  400de0 <__printf_chk@plt>
  401302:	48 8b 3d 77 31 20 00 	mov    0x203177(%rip),%rdi        # 604480 <buf_offset>
  401309:	e8 2a 0c 00 00       	callq  401f38 <stable_launch>
  40130e:	b8 00 00 00 00       	mov    $0x0,%eax
  401313:	5b                   	pop    %rbx
  401314:	5d                   	pop    %rbp
  401315:	41 5c                	pop    %r12
  401317:	41 5d                	pop    %r13
  401319:	41 5e                	pop    %r14
  40131b:	c3                   	retq   
  40131c:	44 89 f2             	mov    %r14d,%edx
  40131f:	be 38 2f 40 00       	mov    $0x402f38,%esi
  401324:	bf 01 00 00 00       	mov    $0x1,%edi
  401329:	b8 00 00 00 00       	mov    $0x0,%eax
  40132e:	e8 ad fa ff ff       	callq  400de0 <__printf_chk@plt>
  401333:	b8 00 00 00 00       	mov    $0x0,%eax
  401338:	e8 98 06 00 00       	callq  4019d5 <check_fail>
  40133d:	eb a9                	jmp    4012e8 <main+0x175>

000000000040133f <scramble>:
  40133f:	48 83 ec 38          	sub    $0x38,%rsp
  401343:	64 48 8b 04 25 28 00 	mov    %fs:0x28,%rax
  40134a:	00 00 
  40134c:	48 89 44 24 28       	mov    %rax,0x28(%rsp)
  401351:	31 c0                	xor    %eax,%eax
  401353:	eb 10                	jmp    401365 <scramble+0x26>
  401355:	69 d0 33 52 00 00    	imul   $0x5233,%eax,%edx
  40135b:	01 fa                	add    %edi,%edx
  40135d:	89 c1                	mov    %eax,%ecx
  40135f:	89 14 8c             	mov    %edx,(%rsp,%rcx,4)
  401362:	83 c0 01             	add    $0x1,%eax
  401365:	83 f8 09             	cmp    $0x9,%eax
  401368:	76 eb                	jbe    401355 <scramble+0x16>
  40136a:	8b 44 24 18          	mov    0x18(%rsp),%eax
  40136e:	69 c0 42 99 00 00    	imul   $0x9942,%eax,%eax
  401374:	89 44 24 18          	mov    %eax,0x18(%rsp)
  401378:	8b 44 24 1c          	mov    0x1c(%rsp),%eax
  40137c:	69 c0 f3 90 00 00    	imul   $0x90f3,%eax,%eax
  401382:	89 44 24 1c          	mov    %eax,0x1c(%rsp)
  401386:	8b 44 24 0c          	mov    0xc(%rsp),%eax
  40138a:	69 c0 99 1a 00 00    	imul   $0x1a99,%eax,%eax
  401390:	89 44 24 0c          	mov    %eax,0xc(%rsp)
  401394:	8b 44 24 14          	mov    0x14(%rsp),%eax
  401398:	69 c0 24 f9 00 00    	imul   $0xf924,%eax,%eax
  40139e:	89 44 24 14          	mov    %eax,0x14(%rsp)
  4013a2:	8b 44 24 10          	mov    0x10(%rsp),%eax
  4013a6:	69 c0 40 33 00 00    	imul   $0x3340,%eax,%eax
  4013ac:	89 44 24 10          	mov    %eax,0x10(%rsp)
  4013b0:	8b 44 24 10          	mov    0x10(%rsp),%eax
  4013b4:	69 c0 ba 8a 00 00    	imul   $0x8aba,%eax,%eax
  4013ba:	89 44 24 10          	mov    %eax,0x10(%rsp)
  4013be:	8b 44 24 10          	mov    0x10(%rsp),%eax
  4013c2:	69 c0 6b ba 00 00    	imul   $0xba6b,%eax,%eax
  4013c8:	89 44 24 10          	mov    %eax,0x10(%rsp)
  4013cc:	8b 44 24 04          	mov    0x4(%rsp),%eax
  4013d0:	69 c0 76 a1 00 00    	imul   $0xa176,%eax,%eax
  4013d6:	89 44 24 04          	mov    %eax,0x4(%rsp)
  4013da:	8b 44 24 24          	mov    0x24(%rsp),%eax
  4013de:	69 c0 e9 53 00 00    	imul   $0x53e9,%eax,%eax
  4013e4:	89 44 24 24          	mov    %eax,0x24(%rsp)
  4013e8:	8b 44 24 10          	mov    0x10(%rsp),%eax
  4013ec:	69 c0 65 12 00 00    	imul   $0x1265,%eax,%eax
  4013f2:	89 44 24 10          	mov    %eax,0x10(%rsp)
  4013f6:	8b 44 24 24          	mov    0x24(%rsp),%eax
  4013fa:	69 c0 60 36 00 00    	imul   $0x3660,%eax,%eax
  401400:	89 44 24 24          	mov    %eax,0x24(%rsp)
  401404:	8b 44 24 20          	mov    0x20(%rsp),%eax
  401408:	69 c0 45 81 00 00    	imul   $0x8145,%eax,%eax
  40140e:	89 44 24 20          	mov    %eax,0x20(%rsp)
  401412:	8b 44 24 08          	mov    0x8(%rsp),%eax
  401416:	69 c0 62 ba 00 00    	imul   $0xba62,%eax,%eax
  40141c:	89 44 24 08          	mov    %eax,0x8(%rsp)
  401420:	8b 04 24             	mov    (%rsp),%eax
  401423:	69 c0 60 d4 00 00    	imul   $0xd460,%eax,%eax
  401429:	89 04 24             	mov    %eax,(%rsp)
  40142c:	8b 44 24 0c          	mov    0xc(%rsp),%eax
  401430:	69 c0 0e 80 00 00    	imul   $0x800e,%eax,%eax
  401436:	89 44 24 0c          	mov    %eax,0xc(%rsp)
  40143a:	8b 44 24 18          	mov    0x18(%rsp),%eax
  40143e:	69 c0 d8 06 00 00    	imul   $0x6d8,%eax,%eax
  401444:	89 44 24 18          	mov    %eax,0x18(%rsp)
  401448:	8b 44 24 24          	mov    0x24(%rsp),%eax
  40144c:	69 c0 5b a6 00 00    	imul   $0xa65b,%eax,%eax
  401452:	89 44 24 24          	mov    %eax,0x24(%rsp)
  401456:	8b 44 24 10          	mov    0x10(%rsp),%eax
  40145a:	69 c0 6a dd 00 00    	imul   $0xdd6a,%eax,%eax
  401460:	89 44 24 10          	mov    %eax,0x10(%rsp)
  401464:	8b 44 24 08          	mov    0x8(%rsp),%eax
  401468:	69 c0 e7 6d 00 00    	imul   $0x6de7,%eax,%eax
  40146e:	89 44 24 08          	mov    %eax,0x8(%rsp)
  401472:	8b 44 24 24          	mov    0x24(%rsp),%eax
  401476:	69 c0 6d da 00 00    	imul   $0xda6d,%eax,%eax
  40147c:	89 44 24 24          	mov    %eax,0x24(%rsp)
  401480:	8b 44 24 14          	mov    0x14(%rsp),%eax
  401484:	69 c0 00 39 00 00    	imul   $0x3900,%eax,%eax
  40148a:	89 44 24 14          	mov    %eax,0x14(%rsp)
  40148e:	8b 44 24 04          	mov    0x4(%rsp),%eax
  401492:	69 c0 34 0c 00 00    	imul   $0xc34,%eax,%eax
  401498:	89 44 24 04          	mov    %eax,0x4(%rsp)
  40149c:	8b 44 24 20          	mov    0x20(%rsp),%eax
  4014a0:	69 c0 d6 b7 00 00    	imul   $0xb7d6,%eax,%eax
  4014a6:	89 44 24 20          	mov    %eax,0x20(%rsp)
  4014aa:	8b 44 24 0c          	mov    0xc(%rsp),%eax
  4014ae:	69 c0 d8 cd 00 00    	imul   $0xcdd8,%eax,%eax
  4014b4:	89 44 24 0c          	mov    %eax,0xc(%rsp)
  4014b8:	8b 44 24 24          	mov    0x24(%rsp),%eax
  4014bc:	69 c0 bf ab 00 00    	imul   $0xabbf,%eax,%eax
  4014c2:	89 44 24 24          	mov    %eax,0x24(%rsp)
  4014c6:	8b 44 24 1c          	mov    0x1c(%rsp),%eax
  4014ca:	69 c0 5b 77 00 00    	imul   $0x775b,%eax,%eax
  4014d0:	89 44 24 1c          	mov    %eax,0x1c(%rsp)
  4014d4:	8b 44 24 08          	mov    0x8(%rsp),%eax
  4014d8:	69 c0 75 67 00 00    	imul   $0x6775,%eax,%eax
  4014de:	89 44 24 08          	mov    %eax,0x8(%rsp)
  4014e2:	8b 44 24 14          	mov    0x14(%rsp),%eax
  4014e6:	69 c0 de ed 00 00    	imul   $0xedde,%eax,%eax
  4014ec:	89 44 24 14          	mov    %eax,0x14(%rsp)
  4014f0:	8b 44 24 18          	mov    0x18(%rsp),%eax
  4014f4:	69 c0 9a d8 00 00    	imul   $0xd89a,%eax,%eax
  4014fa:	89 44 24 18          	mov    %eax,0x18(%rsp)
  4014fe:	8b 44 24 1c          	mov    0x1c(%rsp),%eax
  401502:	69 c0 7c d6 00 00    	imul   $0xd67c,%eax,%eax
  401508:	89 44 24 1c          	mov    %eax,0x1c(%rsp)
  40150c:	8b 44 24 08          	mov    0x8(%rsp),%eax
  401510:	69 c0 7b 14 00 00    	imul   $0x147b,%eax,%eax
  401516:	89 44 24 08          	mov    %eax,0x8(%rsp)
  40151a:	8b 44 24 04          	mov    0x4(%rsp),%eax
  40151e:	69 c0 f9 71 00 00    	imul   $0x71f9,%eax,%eax
  401524:	89 44 24 04          	mov    %eax,0x4(%rsp)
  401528:	8b 44 24 24          	mov    0x24(%rsp),%eax
  40152c:	69 c0 1f 75 00 00    	imul   $0x751f,%eax,%eax
  401532:	89 44 24 24          	mov    %eax,0x24(%rsp)
  401536:	8b 44 24 18          	mov    0x18(%rsp),%eax
  40153a:	69 c0 cb 7b 00 00    	imul   $0x7bcb,%eax,%eax
  401540:	89 44 24 18          	mov    %eax,0x18(%rsp)
  401544:	8b 44 24 24          	mov    0x24(%rsp),%eax
  401548:	69 c0 f1 25 00 00    	imul   $0x25f1,%eax,%eax
  40154e:	89 44 24 24          	mov    %eax,0x24(%rsp)
  401552:	8b 04 24             	mov    (%rsp),%eax
  401555:	69 c0 2e 84 00 00    	imul   $0x842e,%eax,%eax
  40155b:	89 04 24             	mov    %eax,(%rsp)
  40155e:	8b 44 24 08          	mov    0x8(%rsp),%eax
  401562:	69 c0 60 bb 00 00    	imul   $0xbb60,%eax,%eax
  401568:	89 44 24 08          	mov    %eax,0x8(%rsp)
  40156c:	8b 44 24 20          	mov    0x20(%rsp),%eax
  401570:	69 c0 5d 52 00 00    	imul   $0x525d,%eax,%eax
  401576:	89 44 24 20          	mov    %eax,0x20(%rsp)
  40157a:	8b 44 24 18          	mov    0x18(%rsp),%eax
  40157e:	69 c0 0c 3e 00 00    	imul   $0x3e0c,%eax,%eax
  401584:	89 44 24 18          	mov    %eax,0x18(%rsp)
  401588:	8b 44 24 24          	mov    0x24(%rsp),%eax
  40158c:	69 c0 f5 7e 00 00    	imul   $0x7ef5,%eax,%eax
  401592:	89 44 24 24          	mov    %eax,0x24(%rsp)
  401596:	8b 44 24 08          	mov    0x8(%rsp),%eax
  40159a:	6b c0 73             	imul   $0x73,%eax,%eax
  40159d:	89 44 24 08          	mov    %eax,0x8(%rsp)
  4015a1:	8b 04 24             	mov    (%rsp),%eax
  4015a4:	69 c0 eb cb 00 00    	imul   $0xcbeb,%eax,%eax
  4015aa:	89 04 24             	mov    %eax,(%rsp)
  4015ad:	8b 44 24 14          	mov    0x14(%rsp),%eax
  4015b1:	69 c0 f1 ee 00 00    	imul   $0xeef1,%eax,%eax
  4015b7:	89 44 24 14          	mov    %eax,0x14(%rsp)
  4015bb:	8b 44 24 04          	mov    0x4(%rsp),%eax
  4015bf:	69 c0 c0 89 00 00    	imul   $0x89c0,%eax,%eax
  4015c5:	89 44 24 04          	mov    %eax,0x4(%rsp)
  4015c9:	8b 44 24 10          	mov    0x10(%rsp),%eax
  4015cd:	69 c0 07 7c 00 00    	imul   $0x7c07,%eax,%eax
  4015d3:	89 44 24 10          	mov    %eax,0x10(%rsp)
  4015d7:	8b 44 24 10          	mov    0x10(%rsp),%eax
  4015db:	69 c0 34 20 00 00    	imul   $0x2034,%eax,%eax
  4015e1:	89 44 24 10          	mov    %eax,0x10(%rsp)
  4015e5:	8b 44 24 18          	mov    0x18(%rsp),%eax
  4015e9:	69 c0 90 3d 00 00    	imul   $0x3d90,%eax,%eax
  4015ef:	89 44 24 18          	mov    %eax,0x18(%rsp)
  4015f3:	8b 44 24 24          	mov    0x24(%rsp),%eax
  4015f7:	69 c0 59 4b 00 00    	imul   $0x4b59,%eax,%eax
  4015fd:	89 44 24 24          	mov    %eax,0x24(%rsp)
  401601:	8b 44 24 14          	mov    0x14(%rsp),%eax
  401605:	69 c0 91 e1 00 00    	imul   $0xe191,%eax,%eax
  40160b:	89 44 24 14          	mov    %eax,0x14(%rsp)
  40160f:	8b 44 24 24          	mov    0x24(%rsp),%eax
  401613:	69 c0 b6 95 00 00    	imul   $0x95b6,%eax,%eax
  401619:	89 44 24 24          	mov    %eax,0x24(%rsp)
  40161d:	8b 44 24 10          	mov    0x10(%rsp),%eax
  401621:	69 c0 5e 1d 00 00    	imul   $0x1d5e,%eax,%eax
  401627:	89 44 24 10          	mov    %eax,0x10(%rsp)
  40162b:	8b 44 24 08          	mov    0x8(%rsp),%eax
  40162f:	69 c0 75 66 00 00    	imul   $0x6675,%eax,%eax
  401635:	89 44 24 08          	mov    %eax,0x8(%rsp)
  401639:	8b 44 24 10          	mov    0x10(%rsp),%eax
  40163d:	69 c0 46 aa 00 00    	imul   $0xaa46,%eax,%eax
  401643:	89 44 24 10          	mov    %eax,0x10(%rsp)
  401647:	8b 44 24 20          	mov    0x20(%rsp),%eax
  40164b:	69 c0 f5 4b 00 00    	imul   $0x4bf5,%eax,%eax
  401651:	89 44 24 20          	mov    %eax,0x20(%rsp)
  401655:	8b 44 24 18          	mov    0x18(%rsp),%eax
  401659:	69 c0 08 d9 00 00    	imul   $0xd908,%eax,%eax
  40165f:	89 44 24 18          	mov    %eax,0x18(%rsp)
  401663:	8b 44 24 08          	mov    0x8(%rsp),%eax
  401667:	69 c0 1d d2 00 00    	imul   $0xd21d,%eax,%eax
  40166d:	89 44 24 08          	mov    %eax,0x8(%rsp)
  401671:	8b 44 24 18          	mov    0x18(%rsp),%eax
  401675:	69 c0 3b c1 00 00    	imul   $0xc13b,%eax,%eax
  40167b:	89 44 24 18          	mov    %eax,0x18(%rsp)
  40167f:	8b 44 24 18          	mov    0x18(%rsp),%eax
  401683:	69 c0 64 41 00 00    	imul   $0x4164,%eax,%eax
  401689:	89 44 24 18          	mov    %eax,0x18(%rsp)
  40168d:	8b 04 24             	mov    (%rsp),%eax
  401690:	69 c0 d1 57 00 00    	imul   $0x57d1,%eax,%eax
  401696:	89 04 24             	mov    %eax,(%rsp)
  401699:	8b 44 24 10          	mov    0x10(%rsp),%eax
  40169d:	69 c0 b7 77 00 00    	imul   $0x77b7,%eax,%eax
  4016a3:	89 44 24 10          	mov    %eax,0x10(%rsp)
  4016a7:	8b 04 24             	mov    (%rsp),%eax
  4016aa:	69 c0 60 2b 00 00    	imul   $0x2b60,%eax,%eax
  4016b0:	89 04 24             	mov    %eax,(%rsp)
  4016b3:	8b 44 24 10          	mov    0x10(%rsp),%eax
  4016b7:	69 c0 5b 64 00 00    	imul   $0x645b,%eax,%eax
  4016bd:	89 44 24 10          	mov    %eax,0x10(%rsp)
  4016c1:	8b 44 24 20          	mov    0x20(%rsp),%eax
  4016c5:	69 c0 1a 2a 00 00    	imul   $0x2a1a,%eax,%eax
  4016cb:	89 44 24 20          	mov    %eax,0x20(%rsp)
  4016cf:	8b 44 24 0c          	mov    0xc(%rsp),%eax
  4016d3:	69 c0 a0 1b 00 00    	imul   $0x1ba0,%eax,%eax
  4016d9:	89 44 24 0c          	mov    %eax,0xc(%rsp)
  4016dd:	8b 44 24 08          	mov    0x8(%rsp),%eax
  4016e1:	69 c0 d9 76 00 00    	imul   $0x76d9,%eax,%eax
  4016e7:	89 44 24 08          	mov    %eax,0x8(%rsp)
  4016eb:	8b 44 24 0c          	mov    0xc(%rsp),%eax
  4016ef:	69 c0 2e 13 00 00    	imul   $0x132e,%eax,%eax
  4016f5:	89 44 24 0c          	mov    %eax,0xc(%rsp)
  4016f9:	8b 44 24 14          	mov    0x14(%rsp),%eax
  4016fd:	69 c0 3a cb 00 00    	imul   $0xcb3a,%eax,%eax
  401703:	89 44 24 14          	mov    %eax,0x14(%rsp)
  401707:	8b 44 24 10          	mov    0x10(%rsp),%eax
  40170b:	69 c0 f6 6c 00 00    	imul   $0x6cf6,%eax,%eax
  401711:	89 44 24 10          	mov    %eax,0x10(%rsp)
  401715:	8b 44 24 04          	mov    0x4(%rsp),%eax
  401719:	69 c0 76 32 00 00    	imul   $0x3276,%eax,%eax
  40171f:	89 44 24 04          	mov    %eax,0x4(%rsp)
  401723:	8b 44 24 10          	mov    0x10(%rsp),%eax
  401727:	69 c0 d2 5d 00 00    	imul   $0x5dd2,%eax,%eax
  40172d:	89 44 24 10          	mov    %eax,0x10(%rsp)
  401731:	8b 44 24 24          	mov    0x24(%rsp),%eax
  401735:	69 c0 d5 83 00 00    	imul   $0x83d5,%eax,%eax
  40173b:	89 44 24 24          	mov    %eax,0x24(%rsp)
  40173f:	8b 04 24             	mov    (%rsp),%eax
  401742:	69 c0 fa e4 00 00    	imul   $0xe4fa,%eax,%eax
  401748:	89 04 24             	mov    %eax,(%rsp)
  40174b:	ba 00 00 00 00       	mov    $0x0,%edx
  401750:	b8 00 00 00 00       	mov    $0x0,%eax
  401755:	eb 0a                	jmp    401761 <scramble+0x422>
  401757:	89 d1                	mov    %edx,%ecx
  401759:	8b 0c 8c             	mov    (%rsp,%rcx,4),%ecx
  40175c:	01 c8                	add    %ecx,%eax
  40175e:	83 c2 01             	add    $0x1,%edx
  401761:	83 fa 09             	cmp    $0x9,%edx
  401764:	76 f1                	jbe    401757 <scramble+0x418>
  401766:	48 8b 74 24 28       	mov    0x28(%rsp),%rsi
  40176b:	64 48 33 34 25 28 00 	xor    %fs:0x28,%rsi
  401772:	00 00 
  401774:	75 05                	jne    40177b <scramble+0x43c>
  401776:	48 83 c4 38          	add    $0x38,%rsp
  40177a:	c3                   	retq   
  40177b:	e8 60 f5 ff ff       	callq  400ce0 <__stack_chk_fail@plt>

0000000000401780 <getbuf>:
  401780:	48 83 ec 18          	sub    $0x18,%rsp
  401784:	48 89 e7             	mov    %rsp,%rdi
  401787:	e8 7e 02 00 00       	callq  401a0a <Gets>
  40178c:	b8 01 00 00 00       	mov    $0x1,%eax
  401791:	48 83 c4 18          	add    $0x18,%rsp
  401795:	c3                   	retq   

0000000000401796 <touch1>:
  401796:	48 83 ec 08          	sub    $0x8,%rsp
  40179a:	c7 05 58 2d 20 00 01 	movl   $0x1,0x202d58(%rip)        # 6044fc <vlevel>
  4017a1:	00 00 00 
  4017a4:	bf fa 30 40 00       	mov    $0x4030fa,%edi
  4017a9:	e8 12 f5 ff ff       	callq  400cc0 <puts@plt>
  4017ae:	bf 01 00 00 00       	mov    $0x1,%edi
  4017b3:	e8 a7 04 00 00       	callq  401c5f <validate>
  4017b8:	bf 00 00 00 00       	mov    $0x0,%edi
  4017bd:	e8 6e f6 ff ff       	callq  400e30 <exit@plt>

00000000004017c2 <touch2>:
  4017c2:	48 83 ec 08          	sub    $0x8,%rsp
  4017c6:	89 fa                	mov    %edi,%edx
  4017c8:	c7 05 2a 2d 20 00 02 	movl   $0x2,0x202d2a(%rip)        # 6044fc <vlevel>
  4017cf:	00 00 00 
  4017d2:	39 3d 2c 2d 20 00    	cmp    %edi,0x202d2c(%rip)        # 604504 <cookie>
  4017d8:	74 28                	je     401802 <touch2+0x40>
  4017da:	be 48 31 40 00       	mov    $0x403148,%esi
  4017df:	bf 01 00 00 00       	mov    $0x1,%edi
  4017e4:	b8 00 00 00 00       	mov    $0x0,%eax
  4017e9:	e8 f2 f5 ff ff       	callq  400de0 <__printf_chk@plt>
  4017ee:	bf 02 00 00 00       	mov    $0x2,%edi
  4017f3:	e8 2c 05 00 00       	callq  401d24 <fail>
  4017f8:	bf 00 00 00 00       	mov    $0x0,%edi
  4017fd:	e8 2e f6 ff ff       	callq  400e30 <exit@plt>
  401802:	be 20 31 40 00       	mov    $0x403120,%esi
  401807:	bf 01 00 00 00       	mov    $0x1,%edi
  40180c:	b8 00 00 00 00       	mov    $0x0,%eax
  401811:	e8 ca f5 ff ff       	callq  400de0 <__printf_chk@plt>
  401816:	bf 02 00 00 00       	mov    $0x2,%edi
  40181b:	e8 3f 04 00 00       	callq  401c5f <validate>
  401820:	eb d6                	jmp    4017f8 <touch2+0x36>

0000000000401822 <hexmatch>:
  401822:	41 54                	push   %r12
  401824:	55                   	push   %rbp
  401825:	53                   	push   %rbx
  401826:	48 83 c4 80          	add    $0xffffffffffffff80,%rsp
  40182a:	89 fd                	mov    %edi,%ebp
  40182c:	48 89 f3             	mov    %rsi,%rbx
  40182f:	64 48 8b 04 25 28 00 	mov    %fs:0x28,%rax
  401836:	00 00 
  401838:	48 89 44 24 78       	mov    %rax,0x78(%rsp)
  40183d:	31 c0                	xor    %eax,%eax
  40183f:	e8 5c f5 ff ff       	callq  400da0 <random@plt>
  401844:	48 89 c1             	mov    %rax,%rcx
  401847:	48 ba 0b d7 a3 70 3d 	movabs $0xa3d70a3d70a3d70b,%rdx
  40184e:	0a d7 a3 
  401851:	48 f7 ea             	imul   %rdx
  401854:	48 01 ca             	add    %rcx,%rdx
  401857:	48 c1 fa 06          	sar    $0x6,%rdx
  40185b:	48 89 c8             	mov    %rcx,%rax
  40185e:	48 c1 f8 3f          	sar    $0x3f,%rax
  401862:	48 29 c2             	sub    %rax,%rdx
  401865:	48 8d 04 92          	lea    (%rdx,%rdx,4),%rax
  401869:	48 8d 14 80          	lea    (%rax,%rax,4),%rdx
  40186d:	48 8d 04 95 00 00 00 	lea    0x0(,%rdx,4),%rax
  401874:	00 
  401875:	48 29 c1             	sub    %rax,%rcx
  401878:	4c 8d 24 0c          	lea    (%rsp,%rcx,1),%r12
  40187c:	41 89 e8             	mov    %ebp,%r8d
  40187f:	b9 17 31 40 00       	mov    $0x403117,%ecx
  401884:	48 c7 c2 ff ff ff ff 	mov    $0xffffffffffffffff,%rdx
  40188b:	be 01 00 00 00       	mov    $0x1,%esi
  401890:	4c 89 e7             	mov    %r12,%rdi
  401893:	b8 00 00 00 00       	mov    $0x0,%eax
  401898:	e8 c3 f5 ff ff       	callq  400e60 <__sprintf_chk@plt>
  40189d:	ba 09 00 00 00       	mov    $0x9,%edx
  4018a2:	4c 89 e6             	mov    %r12,%rsi
  4018a5:	48 89 df             	mov    %rbx,%rdi
  4018a8:	e8 f3 f3 ff ff       	callq  400ca0 <strncmp@plt>
  4018ad:	85 c0                	test   %eax,%eax
  4018af:	0f 94 c0             	sete   %al
  4018b2:	48 8b 5c 24 78       	mov    0x78(%rsp),%rbx
  4018b7:	64 48 33 1c 25 28 00 	xor    %fs:0x28,%rbx
  4018be:	00 00 
  4018c0:	75 0c                	jne    4018ce <hexmatch+0xac>
  4018c2:	0f b6 c0             	movzbl %al,%eax
  4018c5:	48 83 ec 80          	sub    $0xffffffffffffff80,%rsp
  4018c9:	5b                   	pop    %rbx
  4018ca:	5d                   	pop    %rbp
  4018cb:	41 5c                	pop    %r12
  4018cd:	c3                   	retq   
  4018ce:	e8 0d f4 ff ff       	callq  400ce0 <__stack_chk_fail@plt>

00000000004018d3 <touch3>:
  4018d3:	53                   	push   %rbx
  4018d4:	48 89 fb             	mov    %rdi,%rbx
  4018d7:	c7 05 1b 2c 20 00 03 	movl   $0x3,0x202c1b(%rip)        # 6044fc <vlevel>
  4018de:	00 00 00 
  4018e1:	48 89 fe             	mov    %rdi,%rsi
  4018e4:	8b 3d 1a 2c 20 00    	mov    0x202c1a(%rip),%edi        # 604504 <cookie>
  4018ea:	e8 33 ff ff ff       	callq  401822 <hexmatch>
  4018ef:	85 c0                	test   %eax,%eax
  4018f1:	74 2b                	je     40191e <touch3+0x4b>
  4018f3:	48 89 da             	mov    %rbx,%rdx
  4018f6:	be 70 31 40 00       	mov    $0x403170,%esi
  4018fb:	bf 01 00 00 00       	mov    $0x1,%edi
  401900:	b8 00 00 00 00       	mov    $0x0,%eax
  401905:	e8 d6 f4 ff ff       	callq  400de0 <__printf_chk@plt>
  40190a:	bf 03 00 00 00       	mov    $0x3,%edi
  40190f:	e8 4b 03 00 00       	callq  401c5f <validate>
  401914:	bf 00 00 00 00       	mov    $0x0,%edi
  401919:	e8 12 f5 ff ff       	callq  400e30 <exit@plt>
  40191e:	48 89 da             	mov    %rbx,%rdx
  401921:	be 98 31 40 00       	mov    $0x403198,%esi
  401926:	bf 01 00 00 00       	mov    $0x1,%edi
  40192b:	b8 00 00 00 00       	mov    $0x0,%eax
  401930:	e8 ab f4 ff ff       	callq  400de0 <__printf_chk@plt>
  401935:	bf 03 00 00 00       	mov    $0x3,%edi
  40193a:	e8 e5 03 00 00       	callq  401d24 <fail>
  40193f:	eb d3                	jmp    401914 <touch3+0x41>

0000000000401941 <test>:
  401941:	48 83 ec 08          	sub    $0x8,%rsp
  401945:	b8 00 00 00 00       	mov    $0x0,%eax
  40194a:	e8 31 fe ff ff       	callq  401780 <getbuf>
  40194f:	89 c2                	mov    %eax,%edx
  401951:	be c0 31 40 00       	mov    $0x4031c0,%esi
  401956:	bf 01 00 00 00       	mov    $0x1,%edi
  40195b:	b8 00 00 00 00       	mov    $0x0,%eax
  401960:	e8 7b f4 ff ff       	callq  400de0 <__printf_chk@plt>
  401965:	48 83 c4 08          	add    $0x8,%rsp
  401969:	c3                   	retq   

000000000040196a <save_char>:
  40196a:	8b 05 b4 37 20 00    	mov    0x2037b4(%rip),%eax        # 605124 <gets_cnt>
  401970:	3d ff 03 00 00       	cmp    $0x3ff,%eax
  401975:	7f 49                	jg     4019c0 <save_char+0x56>
  401977:	89 f9                	mov    %edi,%ecx
  401979:	c0 e9 04             	shr    $0x4,%cl
  40197c:	8d 14 40             	lea    (%rax,%rax,2),%edx
  40197f:	83 e1 0f             	and    $0xf,%ecx
  401982:	0f b6 b1 e0 34 40 00 	movzbl 0x4034e0(%rcx),%esi
  401989:	48 63 ca             	movslq %edx,%rcx
  40198c:	40 88 b1 20 45 60 00 	mov    %sil,0x604520(%rcx)
  401993:	8d 4a 01             	lea    0x1(%rdx),%ecx
  401996:	83 e7 0f             	and    $0xf,%edi
  401999:	0f b6 b7 e0 34 40 00 	movzbl 0x4034e0(%rdi),%esi
  4019a0:	48 63 c9             	movslq %ecx,%rcx
  4019a3:	40 88 b1 20 45 60 00 	mov    %sil,0x604520(%rcx)
  4019aa:	83 c2 02             	add    $0x2,%edx
  4019ad:	48 63 d2             	movslq %edx,%rdx
  4019b0:	c6 82 20 45 60 00 20 	movb   $0x20,0x604520(%rdx)
  4019b7:	83 c0 01             	add    $0x1,%eax
  4019ba:	89 05 64 37 20 00    	mov    %eax,0x203764(%rip)        # 605124 <gets_cnt>
  4019c0:	f3 c3                	repz retq 

00000000004019c2 <save_term>:
  4019c2:	8b 05 5c 37 20 00    	mov    0x20375c(%rip),%eax        # 605124 <gets_cnt>
  4019c8:	8d 04 40             	lea    (%rax,%rax,2),%eax
  4019cb:	48 98                	cltq   
  4019cd:	c6 80 20 45 60 00 00 	movb   $0x0,0x604520(%rax)
  4019d4:	c3                   	retq   

00000000004019d5 <check_fail>:
  4019d5:	48 83 ec 08          	sub    $0x8,%rsp
  4019d9:	0f be 15 48 37 20 00 	movsbl 0x203748(%rip),%edx        # 605128 <target_prefix>
  4019e0:	41 b8 20 45 60 00    	mov    $0x604520,%r8d
  4019e6:	8b 0d 0c 2b 20 00    	mov    0x202b0c(%rip),%ecx        # 6044f8 <check_level>
  4019ec:	be e3 31 40 00       	mov    $0x4031e3,%esi
  4019f1:	bf 01 00 00 00       	mov    $0x1,%edi
  4019f6:	b8 00 00 00 00       	mov    $0x0,%eax
  4019fb:	e8 e0 f3 ff ff       	callq  400de0 <__printf_chk@plt>
  401a00:	bf 01 00 00 00       	mov    $0x1,%edi
  401a05:	e8 26 f4 ff ff       	callq  400e30 <exit@plt>

0000000000401a0a <Gets>:
  401a0a:	41 54                	push   %r12
  401a0c:	55                   	push   %rbp
  401a0d:	53                   	push   %rbx
  401a0e:	49 89 fc             	mov    %rdi,%r12
  401a11:	c7 05 09 37 20 00 00 	movl   $0x0,0x203709(%rip)        # 605124 <gets_cnt>
  401a18:	00 00 00 
  401a1b:	48 89 fb             	mov    %rdi,%rbx
  401a1e:	eb 11                	jmp    401a31 <Gets+0x27>
  401a20:	48 8d 6b 01          	lea    0x1(%rbx),%rbp
  401a24:	88 03                	mov    %al,(%rbx)
  401a26:	0f b6 f8             	movzbl %al,%edi
  401a29:	e8 3c ff ff ff       	callq  40196a <save_char>
  401a2e:	48 89 eb             	mov    %rbp,%rbx
  401a31:	48 8b 3d b8 2a 20 00 	mov    0x202ab8(%rip),%rdi        # 6044f0 <infile>
  401a38:	e8 73 f3 ff ff       	callq  400db0 <_IO_getc@plt>
  401a3d:	83 f8 ff             	cmp    $0xffffffff,%eax
  401a40:	74 05                	je     401a47 <Gets+0x3d>
  401a42:	83 f8 0a             	cmp    $0xa,%eax
  401a45:	75 d9                	jne    401a20 <Gets+0x16>
  401a47:	c6 03 00             	movb   $0x0,(%rbx)
  401a4a:	b8 00 00 00 00       	mov    $0x0,%eax
  401a4f:	e8 6e ff ff ff       	callq  4019c2 <save_term>
  401a54:	4c 89 e0             	mov    %r12,%rax
  401a57:	5b                   	pop    %rbx
  401a58:	5d                   	pop    %rbp
  401a59:	41 5c                	pop    %r12
  401a5b:	c3                   	retq   

0000000000401a5c <notify_server>:
  401a5c:	55                   	push   %rbp
  401a5d:	53                   	push   %rbx
  401a5e:	48 81 ec 18 40 00 00 	sub    $0x4018,%rsp
  401a65:	64 48 8b 04 25 28 00 	mov    %fs:0x28,%rax
  401a6c:	00 00 
  401a6e:	48 89 84 24 08 40 00 	mov    %rax,0x4008(%rsp)
  401a75:	00 
  401a76:	31 c0                	xor    %eax,%eax
  401a78:	83 3d 89 2a 20 00 00 	cmpl   $0x0,0x202a89(%rip)        # 604508 <is_checker>
  401a7f:	0f 85 c9 00 00 00    	jne    401b4e <notify_server+0xf2>
  401a85:	89 fb                	mov    %edi,%ebx
  401a87:	8b 05 97 36 20 00    	mov    0x203697(%rip),%eax        # 605124 <gets_cnt>
  401a8d:	83 c0 64             	add    $0x64,%eax
  401a90:	3d 00 20 00 00       	cmp    $0x2000,%eax
  401a95:	0f 8f d4 00 00 00    	jg     401b6f <notify_server+0x113>
  401a9b:	0f be 05 86 36 20 00 	movsbl 0x203686(%rip),%eax        # 605128 <target_prefix>
  401aa2:	83 3d df 29 20 00 00 	cmpl   $0x0,0x2029df(%rip)        # 604488 <notify>
  401aa9:	0f 84 de 00 00 00    	je     401b8d <notify_server+0x131>
  401aaf:	8b 15 4b 2a 20 00    	mov    0x202a4b(%rip),%edx        # 604500 <authkey>
  401ab5:	85 db                	test   %ebx,%ebx
  401ab7:	0f 84 da 00 00 00    	je     401b97 <notify_server+0x13b>
  401abd:	bd f9 31 40 00       	mov    $0x4031f9,%ebp
  401ac2:	68 20 45 60 00       	pushq  $0x604520
  401ac7:	56                   	push   %rsi
  401ac8:	50                   	push   %rax
  401ac9:	52                   	push   %rdx
  401aca:	49 89 e9             	mov    %rbp,%r9
  401acd:	44 8b 05 74 26 20 00 	mov    0x202674(%rip),%r8d        # 604148 <target_id>
  401ad4:	b9 03 32 40 00       	mov    $0x403203,%ecx
  401ad9:	ba 00 20 00 00       	mov    $0x2000,%edx
  401ade:	be 01 00 00 00       	mov    $0x1,%esi
  401ae3:	48 8d 7c 24 20       	lea    0x20(%rsp),%rdi
  401ae8:	b8 00 00 00 00       	mov    $0x0,%eax
  401aed:	e8 6e f3 ff ff       	callq  400e60 <__sprintf_chk@plt>
  401af2:	48 83 c4 20          	add    $0x20,%rsp
  401af6:	83 3d 8b 29 20 00 00 	cmpl   $0x0,0x20298b(%rip)        # 604488 <notify>
  401afd:	0f 84 d3 00 00 00    	je     401bd6 <notify_server+0x17a>
  401b03:	85 db                	test   %ebx,%ebx
  401b05:	0f 84 bc 00 00 00    	je     401bc7 <notify_server+0x16b>
  401b0b:	4c 8d 8c 24 00 20 00 	lea    0x2000(%rsp),%r9
  401b12:	00 
  401b13:	41 b8 00 00 00 00    	mov    $0x0,%r8d
  401b19:	48 89 e1             	mov    %rsp,%rcx
  401b1c:	48 8b 15 2d 26 20 00 	mov    0x20262d(%rip),%rdx        # 604150 <lab>
  401b23:	48 8b 35 2e 26 20 00 	mov    0x20262e(%rip),%rsi        # 604158 <course>
  401b2a:	48 8b 3d 0f 26 20 00 	mov    0x20260f(%rip),%rdi        # 604140 <user_id>
  401b31:	e8 31 11 00 00       	callq  402c67 <driver_post>
  401b36:	85 c0                	test   %eax,%eax
  401b38:	78 67                	js     401ba1 <notify_server+0x145>
  401b3a:	bf 48 33 40 00       	mov    $0x403348,%edi
  401b3f:	e8 7c f1 ff ff       	callq  400cc0 <puts@plt>
  401b44:	bf 2b 32 40 00       	mov    $0x40322b,%edi
  401b49:	e8 72 f1 ff ff       	callq  400cc0 <puts@plt>
  401b4e:	48 8b 84 24 08 40 00 	mov    0x4008(%rsp),%rax
  401b55:	00 
  401b56:	64 48 33 04 25 28 00 	xor    %fs:0x28,%rax
  401b5d:	00 00 
  401b5f:	0f 85 f5 00 00 00    	jne    401c5a <notify_server+0x1fe>
  401b65:	48 81 c4 18 40 00 00 	add    $0x4018,%rsp
  401b6c:	5b                   	pop    %rbx
  401b6d:	5d                   	pop    %rbp
  401b6e:	c3                   	retq   
  401b6f:	be 18 33 40 00       	mov    $0x403318,%esi
  401b74:	bf 01 00 00 00       	mov    $0x1,%edi
  401b79:	b8 00 00 00 00       	mov    $0x0,%eax
  401b7e:	e8 5d f2 ff ff       	callq  400de0 <__printf_chk@plt>
  401b83:	bf 01 00 00 00       	mov    $0x1,%edi
  401b88:	e8 a3 f2 ff ff       	callq  400e30 <exit@plt>
  401b8d:	ba ff ff ff ff       	mov    $0xffffffff,%edx
  401b92:	e9 1e ff ff ff       	jmpq   401ab5 <notify_server+0x59>
  401b97:	bd fe 31 40 00       	mov    $0x4031fe,%ebp
  401b9c:	e9 21 ff ff ff       	jmpq   401ac2 <notify_server+0x66>
  401ba1:	48 8d 94 24 00 20 00 	lea    0x2000(%rsp),%rdx
  401ba8:	00 
  401ba9:	be 1f 32 40 00       	mov    $0x40321f,%esi
  401bae:	bf 01 00 00 00       	mov    $0x1,%edi
  401bb3:	b8 00 00 00 00       	mov    $0x0,%eax
  401bb8:	e8 23 f2 ff ff       	callq  400de0 <__printf_chk@plt>
  401bbd:	bf 01 00 00 00       	mov    $0x1,%edi
  401bc2:	e8 69 f2 ff ff       	callq  400e30 <exit@plt>
  401bc7:	bf 35 32 40 00       	mov    $0x403235,%edi
  401bcc:	e8 ef f0 ff ff       	callq  400cc0 <puts@plt>
  401bd1:	e9 78 ff ff ff       	jmpq   401b4e <notify_server+0xf2>
  401bd6:	48 89 ea             	mov    %rbp,%rdx
  401bd9:	be 80 33 40 00       	mov    $0x403380,%esi
  401bde:	bf 01 00 00 00       	mov    $0x1,%edi
  401be3:	b8 00 00 00 00       	mov    $0x0,%eax
  401be8:	e8 f3 f1 ff ff       	callq  400de0 <__printf_chk@plt>
  401bed:	48 8b 15 4c 25 20 00 	mov    0x20254c(%rip),%rdx        # 604140 <user_id>
  401bf4:	be 3c 32 40 00       	mov    $0x40323c,%esi
  401bf9:	bf 01 00 00 00       	mov    $0x1,%edi
  401bfe:	b8 00 00 00 00       	mov    $0x0,%eax
  401c03:	e8 d8 f1 ff ff       	callq  400de0 <__printf_chk@plt>
  401c08:	48 8b 15 49 25 20 00 	mov    0x202549(%rip),%rdx        # 604158 <course>
  401c0f:	be 49 32 40 00       	mov    $0x403249,%esi
  401c14:	bf 01 00 00 00       	mov    $0x1,%edi
  401c19:	b8 00 00 00 00       	mov    $0x0,%eax
  401c1e:	e8 bd f1 ff ff       	callq  400de0 <__printf_chk@plt>
  401c23:	48 8b 15 26 25 20 00 	mov    0x202526(%rip),%rdx        # 604150 <lab>
  401c2a:	be 55 32 40 00       	mov    $0x403255,%esi
  401c2f:	bf 01 00 00 00       	mov    $0x1,%edi
  401c34:	b8 00 00 00 00       	mov    $0x0,%eax
  401c39:	e8 a2 f1 ff ff       	callq  400de0 <__printf_chk@plt>
  401c3e:	48 89 e2             	mov    %rsp,%rdx
  401c41:	be 5e 32 40 00       	mov    $0x40325e,%esi
  401c46:	bf 01 00 00 00       	mov    $0x1,%edi
  401c4b:	b8 00 00 00 00       	mov    $0x0,%eax
  401c50:	e8 8b f1 ff ff       	callq  400de0 <__printf_chk@plt>
  401c55:	e9 f4 fe ff ff       	jmpq   401b4e <notify_server+0xf2>
  401c5a:	e8 81 f0 ff ff       	callq  400ce0 <__stack_chk_fail@plt>

0000000000401c5f <validate>:
  401c5f:	53                   	push   %rbx
  401c60:	89 fb                	mov    %edi,%ebx
  401c62:	83 3d 9f 28 20 00 00 	cmpl   $0x0,0x20289f(%rip)        # 604508 <is_checker>
  401c69:	74 6b                	je     401cd6 <validate+0x77>
  401c6b:	39 3d 8b 28 20 00    	cmp    %edi,0x20288b(%rip)        # 6044fc <vlevel>
  401c71:	75 2f                	jne    401ca2 <validate+0x43>
  401c73:	8b 15 7f 28 20 00    	mov    0x20287f(%rip),%edx        # 6044f8 <check_level>
  401c79:	39 fa                	cmp    %edi,%edx
  401c7b:	75 39                	jne    401cb6 <validate+0x57>
  401c7d:	0f be 15 a4 34 20 00 	movsbl 0x2034a4(%rip),%edx        # 605128 <target_prefix>
  401c84:	41 b8 20 45 60 00    	mov    $0x604520,%r8d
  401c8a:	89 f9                	mov    %edi,%ecx
  401c8c:	be 88 32 40 00       	mov    $0x403288,%esi
  401c91:	bf 01 00 00 00       	mov    $0x1,%edi
  401c96:	b8 00 00 00 00       	mov    $0x0,%eax
  401c9b:	e8 40 f1 ff ff       	callq  400de0 <__printf_chk@plt>
  401ca0:	5b                   	pop    %rbx
  401ca1:	c3                   	retq   
  401ca2:	bf 6a 32 40 00       	mov    $0x40326a,%edi
  401ca7:	e8 14 f0 ff ff       	callq  400cc0 <puts@plt>
  401cac:	b8 00 00 00 00       	mov    $0x0,%eax
  401cb1:	e8 1f fd ff ff       	callq  4019d5 <check_fail>
  401cb6:	89 f9                	mov    %edi,%ecx
  401cb8:	be a8 33 40 00       	mov    $0x4033a8,%esi
  401cbd:	bf 01 00 00 00       	mov    $0x1,%edi
  401cc2:	b8 00 00 00 00       	mov    $0x0,%eax
  401cc7:	e8 14 f1 ff ff       	callq  400de0 <__printf_chk@plt>
  401ccc:	b8 00 00 00 00       	mov    $0x0,%eax
  401cd1:	e8 ff fc ff ff       	callq  4019d5 <check_fail>
  401cd6:	39 3d 20 28 20 00    	cmp    %edi,0x202820(%rip)        # 6044fc <vlevel>
  401cdc:	74 18                	je     401cf6 <validate+0x97>
  401cde:	bf 6a 32 40 00       	mov    $0x40326a,%edi
  401ce3:	e8 d8 ef ff ff       	callq  400cc0 <puts@plt>
  401ce8:	89 de                	mov    %ebx,%esi
  401cea:	bf 00 00 00 00       	mov    $0x0,%edi
  401cef:	e8 68 fd ff ff       	callq  401a5c <notify_server>
  401cf4:	eb aa                	jmp    401ca0 <validate+0x41>
  401cf6:	0f be 0d 2b 34 20 00 	movsbl 0x20342b(%rip),%ecx        # 605128 <target_prefix>
  401cfd:	89 fa                	mov    %edi,%edx
  401cff:	be d0 33 40 00       	mov    $0x4033d0,%esi
  401d04:	bf 01 00 00 00       	mov    $0x1,%edi
  401d09:	b8 00 00 00 00       	mov    $0x0,%eax
  401d0e:	e8 cd f0 ff ff       	callq  400de0 <__printf_chk@plt>
  401d13:	89 de                	mov    %ebx,%esi
  401d15:	bf 01 00 00 00       	mov    $0x1,%edi
  401d1a:	e8 3d fd ff ff       	callq  401a5c <notify_server>
  401d1f:	e9 7c ff ff ff       	jmpq   401ca0 <validate+0x41>

0000000000401d24 <fail>:
  401d24:	48 83 ec 08          	sub    $0x8,%rsp
  401d28:	83 3d d9 27 20 00 00 	cmpl   $0x0,0x2027d9(%rip)        # 604508 <is_checker>
  401d2f:	75 11                	jne    401d42 <fail+0x1e>
  401d31:	89 fe                	mov    %edi,%esi
  401d33:	bf 00 00 00 00       	mov    $0x0,%edi
  401d38:	e8 1f fd ff ff       	callq  401a5c <notify_server>
  401d3d:	48 83 c4 08          	add    $0x8,%rsp
  401d41:	c3                   	retq   
  401d42:	b8 00 00 00 00       	mov    $0x0,%eax
  401d47:	e8 89 fc ff ff       	callq  4019d5 <check_fail>

0000000000401d4c <bushandler>:
  401d4c:	48 83 ec 08          	sub    $0x8,%rsp
  401d50:	83 3d b1 27 20 00 00 	cmpl   $0x0,0x2027b1(%rip)        # 604508 <is_checker>
  401d57:	74 14                	je     401d6d <bushandler+0x21>
  401d59:	bf 9d 32 40 00       	mov    $0x40329d,%edi
  401d5e:	e8 5d ef ff ff       	callq  400cc0 <puts@plt>
  401d63:	b8 00 00 00 00       	mov    $0x0,%eax
  401d68:	e8 68 fc ff ff       	callq  4019d5 <check_fail>
  401d6d:	bf 08 34 40 00       	mov    $0x403408,%edi
  401d72:	e8 49 ef ff ff       	callq  400cc0 <puts@plt>
  401d77:	bf a7 32 40 00       	mov    $0x4032a7,%edi
  401d7c:	e8 3f ef ff ff       	callq  400cc0 <puts@plt>
  401d81:	be 00 00 00 00       	mov    $0x0,%esi
  401d86:	bf 00 00 00 00       	mov    $0x0,%edi
  401d8b:	e8 cc fc ff ff       	callq  401a5c <notify_server>
  401d90:	bf 01 00 00 00       	mov    $0x1,%edi
  401d95:	e8 96 f0 ff ff       	callq  400e30 <exit@plt>

0000000000401d9a <seghandler>:
  401d9a:	48 83 ec 08          	sub    $0x8,%rsp
  401d9e:	83 3d 63 27 20 00 00 	cmpl   $0x0,0x202763(%rip)        # 604508 <is_checker>
  401da5:	74 14                	je     401dbb <seghandler+0x21>
  401da7:	bf bd 32 40 00       	mov    $0x4032bd,%edi
  401dac:	e8 0f ef ff ff       	callq  400cc0 <puts@plt>
  401db1:	b8 00 00 00 00       	mov    $0x0,%eax
  401db6:	e8 1a fc ff ff       	callq  4019d5 <check_fail>
  401dbb:	bf 28 34 40 00       	mov    $0x403428,%edi
  401dc0:	e8 fb ee ff ff       	callq  400cc0 <puts@plt>
  401dc5:	bf a7 32 40 00       	mov    $0x4032a7,%edi
  401dca:	e8 f1 ee ff ff       	callq  400cc0 <puts@plt>
  401dcf:	be 00 00 00 00       	mov    $0x0,%esi
  401dd4:	bf 00 00 00 00       	mov    $0x0,%edi
  401dd9:	e8 7e fc ff ff       	callq  401a5c <notify_server>
  401dde:	bf 01 00 00 00       	mov    $0x1,%edi
  401de3:	e8 48 f0 ff ff       	callq  400e30 <exit@plt>

0000000000401de8 <illegalhandler>:
  401de8:	48 83 ec 08          	sub    $0x8,%rsp
  401dec:	83 3d 15 27 20 00 00 	cmpl   $0x0,0x202715(%rip)        # 604508 <is_checker>
  401df3:	74 14                	je     401e09 <illegalhandler+0x21>
  401df5:	bf d0 32 40 00       	mov    $0x4032d0,%edi
  401dfa:	e8 c1 ee ff ff       	callq  400cc0 <puts@plt>
  401dff:	b8 00 00 00 00       	mov    $0x0,%eax
  401e04:	e8 cc fb ff ff       	callq  4019d5 <check_fail>
  401e09:	bf 50 34 40 00       	mov    $0x403450,%edi
  401e0e:	e8 ad ee ff ff       	callq  400cc0 <puts@plt>
  401e13:	bf a7 32 40 00       	mov    $0x4032a7,%edi
  401e18:	e8 a3 ee ff ff       	callq  400cc0 <puts@plt>
  401e1d:	be 00 00 00 00       	mov    $0x0,%esi
  401e22:	bf 00 00 00 00       	mov    $0x0,%edi
  401e27:	e8 30 fc ff ff       	callq  401a5c <notify_server>
  401e2c:	bf 01 00 00 00       	mov    $0x1,%edi
  401e31:	e8 fa ef ff ff       	callq  400e30 <exit@plt>

0000000000401e36 <sigalrmhandler>:
  401e36:	48 83 ec 08          	sub    $0x8,%rsp
  401e3a:	83 3d c7 26 20 00 00 	cmpl   $0x0,0x2026c7(%rip)        # 604508 <is_checker>
  401e41:	74 14                	je     401e57 <sigalrmhandler+0x21>
  401e43:	bf e4 32 40 00       	mov    $0x4032e4,%edi
  401e48:	e8 73 ee ff ff       	callq  400cc0 <puts@plt>
  401e4d:	b8 00 00 00 00       	mov    $0x0,%eax
  401e52:	e8 7e fb ff ff       	callq  4019d5 <check_fail>
  401e57:	ba 05 00 00 00       	mov    $0x5,%edx
  401e5c:	be 80 34 40 00       	mov    $0x403480,%esi
  401e61:	bf 01 00 00 00       	mov    $0x1,%edi
  401e66:	b8 00 00 00 00       	mov    $0x0,%eax
  401e6b:	e8 70 ef ff ff       	callq  400de0 <__printf_chk@plt>
  401e70:	be 00 00 00 00       	mov    $0x0,%esi
  401e75:	bf 00 00 00 00       	mov    $0x0,%edi
  401e7a:	e8 dd fb ff ff       	callq  401a5c <notify_server>
  401e7f:	bf 01 00 00 00       	mov    $0x1,%edi
  401e84:	e8 a7 ef ff ff       	callq  400e30 <exit@plt>

0000000000401e89 <launch>:
  401e89:	55                   	push   %rbp
  401e8a:	48 89 e5             	mov    %rsp,%rbp
  401e8d:	48 83 ec 10          	sub    $0x10,%rsp
  401e91:	48 89 fa             	mov    %rdi,%rdx
  401e94:	64 48 8b 04 25 28 00 	mov    %fs:0x28,%rax
  401e9b:	00 00 
  401e9d:	48 89 45 f8          	mov    %rax,-0x8(%rbp)
  401ea1:	31 c0                	xor    %eax,%eax
  401ea3:	48 8d 47 1e          	lea    0x1e(%rdi),%rax
  401ea7:	48 83 e0 f0          	and    $0xfffffffffffffff0,%rax
  401eab:	48 29 c4             	sub    %rax,%rsp
  401eae:	48 8d 7c 24 0f       	lea    0xf(%rsp),%rdi
  401eb3:	48 83 e7 f0          	and    $0xfffffffffffffff0,%rdi
  401eb7:	be f4 00 00 00       	mov    $0xf4,%esi
  401ebc:	e8 3f ee ff ff       	callq  400d00 <memset@plt>
  401ec1:	48 8b 05 d8 25 20 00 	mov    0x2025d8(%rip),%rax        # 6044a0 <stdin@@GLIBC_2.2.5>
  401ec8:	48 39 05 21 26 20 00 	cmp    %rax,0x202621(%rip)        # 6044f0 <infile>
  401ecf:	74 38                	je     401f09 <launch+0x80>
  401ed1:	c7 05 21 26 20 00 00 	movl   $0x0,0x202621(%rip)        # 6044fc <vlevel>
  401ed8:	00 00 00 
  401edb:	b8 00 00 00 00       	mov    $0x0,%eax
  401ee0:	e8 5c fa ff ff       	callq  401941 <test>
  401ee5:	83 3d 1c 26 20 00 00 	cmpl   $0x0,0x20261c(%rip)        # 604508 <is_checker>
  401eec:	75 31                	jne    401f1f <launch+0x96>
  401eee:	bf 04 33 40 00       	mov    $0x403304,%edi
  401ef3:	e8 c8 ed ff ff       	callq  400cc0 <puts@plt>
  401ef8:	48 8b 45 f8          	mov    -0x8(%rbp),%rax
  401efc:	64 48 33 04 25 28 00 	xor    %fs:0x28,%rax
  401f03:	00 00 
  401f05:	75 2c                	jne    401f33 <launch+0xaa>
  401f07:	c9                   	leaveq 
  401f08:	c3                   	retq   
  401f09:	be ec 32 40 00       	mov    $0x4032ec,%esi
  401f0e:	bf 01 00 00 00       	mov    $0x1,%edi
  401f13:	b8 00 00 00 00       	mov    $0x0,%eax
  401f18:	e8 c3 ee ff ff       	callq  400de0 <__printf_chk@plt>
  401f1d:	eb b2                	jmp    401ed1 <launch+0x48>
  401f1f:	bf f9 32 40 00       	mov    $0x4032f9,%edi
  401f24:	e8 97 ed ff ff       	callq  400cc0 <puts@plt>
  401f29:	b8 00 00 00 00       	mov    $0x0,%eax
  401f2e:	e8 a2 fa ff ff       	callq  4019d5 <check_fail>
  401f33:	e8 a8 ed ff ff       	callq  400ce0 <__stack_chk_fail@plt>

0000000000401f38 <stable_launch>:
  401f38:	53                   	push   %rbx
  401f39:	48 89 3d a8 25 20 00 	mov    %rdi,0x2025a8(%rip)        # 6044e8 <global_offset>
  401f40:	41 b9 00 00 00 00    	mov    $0x0,%r9d
  401f46:	41 b8 00 00 00 00    	mov    $0x0,%r8d
  401f4c:	b9 32 01 00 00       	mov    $0x132,%ecx
  401f51:	ba 07 00 00 00       	mov    $0x7,%edx
  401f56:	be 00 00 10 00       	mov    $0x100000,%esi
  401f5b:	bf 00 60 58 55       	mov    $0x55586000,%edi
  401f60:	e8 8b ed ff ff       	callq  400cf0 <mmap@plt>
  401f65:	48 89 c3             	mov    %rax,%rbx
  401f68:	48 3d 00 60 58 55    	cmp    $0x55586000,%rax
  401f6e:	75 43                	jne    401fb3 <stable_launch+0x7b>
  401f70:	48 8d 90 f8 ff 0f 00 	lea    0xffff8(%rax),%rdx
  401f77:	48 89 15 b2 31 20 00 	mov    %rdx,0x2031b2(%rip)        # 605130 <stack_top>
  401f7e:	48 89 e0             	mov    %rsp,%rax
  401f81:	48 89 d4             	mov    %rdx,%rsp
  401f84:	48 89 c2             	mov    %rax,%rdx
  401f87:	48 89 15 52 25 20 00 	mov    %rdx,0x202552(%rip)        # 6044e0 <global_save_stack>
  401f8e:	48 8b 3d 53 25 20 00 	mov    0x202553(%rip),%rdi        # 6044e8 <global_offset>
  401f95:	e8 ef fe ff ff       	callq  401e89 <launch>
  401f9a:	48 8b 05 3f 25 20 00 	mov    0x20253f(%rip),%rax        # 6044e0 <global_save_stack>
  401fa1:	48 89 c4             	mov    %rax,%rsp
  401fa4:	be 00 00 10 00       	mov    $0x100000,%esi
  401fa9:	48 89 df             	mov    %rbx,%rdi
  401fac:	e8 1f ee ff ff       	callq  400dd0 <munmap@plt>
  401fb1:	5b                   	pop    %rbx
  401fb2:	c3                   	retq   
  401fb3:	be 00 00 10 00       	mov    $0x100000,%esi
  401fb8:	48 89 c7             	mov    %rax,%rdi
  401fbb:	e8 10 ee ff ff       	callq  400dd0 <munmap@plt>
  401fc0:	b9 00 60 58 55       	mov    $0x55586000,%ecx
  401fc5:	ba b8 34 40 00       	mov    $0x4034b8,%edx
  401fca:	be 01 00 00 00       	mov    $0x1,%esi
  401fcf:	48 8b 3d ea 24 20 00 	mov    0x2024ea(%rip),%rdi        # 6044c0 <stderr@@GLIBC_2.2.5>
  401fd6:	b8 00 00 00 00       	mov    $0x0,%eax
  401fdb:	e8 70 ee ff ff       	callq  400e50 <__fprintf_chk@plt>
  401fe0:	bf 01 00 00 00       	mov    $0x1,%edi
  401fe5:	e8 46 ee ff ff       	callq  400e30 <exit@plt>

0000000000401fea <rio_readinitb>:
  401fea:	89 37                	mov    %esi,(%rdi)
  401fec:	c7 47 04 00 00 00 00 	movl   $0x0,0x4(%rdi)
  401ff3:	48 8d 47 10          	lea    0x10(%rdi),%rax
  401ff7:	48 89 47 08          	mov    %rax,0x8(%rdi)
  401ffb:	c3                   	retq   

0000000000401ffc <sigalrm_handler>:
  401ffc:	48 83 ec 08          	sub    $0x8,%rsp
  402000:	b9 00 00 00 00       	mov    $0x0,%ecx
  402005:	ba f0 34 40 00       	mov    $0x4034f0,%edx
  40200a:	be 01 00 00 00       	mov    $0x1,%esi
  40200f:	48 8b 3d aa 24 20 00 	mov    0x2024aa(%rip),%rdi        # 6044c0 <stderr@@GLIBC_2.2.5>
  402016:	b8 00 00 00 00       	mov    $0x0,%eax
  40201b:	e8 30 ee ff ff       	callq  400e50 <__fprintf_chk@plt>
  402020:	bf 01 00 00 00       	mov    $0x1,%edi
  402025:	e8 06 ee ff ff       	callq  400e30 <exit@plt>

000000000040202a <rio_writen>:
  40202a:	41 55                	push   %r13
  40202c:	41 54                	push   %r12
  40202e:	55                   	push   %rbp
  40202f:	53                   	push   %rbx
  402030:	48 83 ec 08          	sub    $0x8,%rsp
  402034:	41 89 fc             	mov    %edi,%r12d
  402037:	48 89 f5             	mov    %rsi,%rbp
  40203a:	49 89 d5             	mov    %rdx,%r13
  40203d:	48 89 d3             	mov    %rdx,%rbx
  402040:	eb 06                	jmp    402048 <rio_writen+0x1e>
  402042:	48 29 c3             	sub    %rax,%rbx
  402045:	48 01 c5             	add    %rax,%rbp
  402048:	48 85 db             	test   %rbx,%rbx
  40204b:	74 24                	je     402071 <rio_writen+0x47>
  40204d:	48 89 da             	mov    %rbx,%rdx
  402050:	48 89 ee             	mov    %rbp,%rsi
  402053:	44 89 e7             	mov    %r12d,%edi
  402056:	e8 75 ec ff ff       	callq  400cd0 <write@plt>
  40205b:	48 85 c0             	test   %rax,%rax
  40205e:	7f e2                	jg     402042 <rio_writen+0x18>
  402060:	e8 1b ec ff ff       	callq  400c80 <__errno_location@plt>
  402065:	83 38 04             	cmpl   $0x4,(%rax)
  402068:	75 15                	jne    40207f <rio_writen+0x55>
  40206a:	b8 00 00 00 00       	mov    $0x0,%eax
  40206f:	eb d1                	jmp    402042 <rio_writen+0x18>
  402071:	4c 89 e8             	mov    %r13,%rax
  402074:	48 83 c4 08          	add    $0x8,%rsp
  402078:	5b                   	pop    %rbx
  402079:	5d                   	pop    %rbp
  40207a:	41 5c                	pop    %r12
  40207c:	41 5d                	pop    %r13
  40207e:	c3                   	retq   
  40207f:	48 c7 c0 ff ff ff ff 	mov    $0xffffffffffffffff,%rax
  402086:	eb ec                	jmp    402074 <rio_writen+0x4a>

0000000000402088 <rio_read>:
  402088:	41 55                	push   %r13
  40208a:	41 54                	push   %r12
  40208c:	55                   	push   %rbp
  40208d:	53                   	push   %rbx
  40208e:	48 83 ec 08          	sub    $0x8,%rsp
  402092:	48 89 fb             	mov    %rdi,%rbx
  402095:	49 89 f5             	mov    %rsi,%r13
  402098:	49 89 d4             	mov    %rdx,%r12
  40209b:	eb 0a                	jmp    4020a7 <rio_read+0x1f>
  40209d:	e8 de eb ff ff       	callq  400c80 <__errno_location@plt>
  4020a2:	83 38 04             	cmpl   $0x4,(%rax)
  4020a5:	75 5c                	jne    402103 <rio_read+0x7b>
  4020a7:	8b 6b 04             	mov    0x4(%rbx),%ebp
  4020aa:	85 ed                	test   %ebp,%ebp
  4020ac:	7f 24                	jg     4020d2 <rio_read+0x4a>
  4020ae:	48 8d 6b 10          	lea    0x10(%rbx),%rbp
  4020b2:	8b 3b                	mov    (%rbx),%edi
  4020b4:	ba 00 20 00 00       	mov    $0x2000,%edx
  4020b9:	48 89 ee             	mov    %rbp,%rsi
  4020bc:	e8 6f ec ff ff       	callq  400d30 <read@plt>
  4020c1:	89 43 04             	mov    %eax,0x4(%rbx)
  4020c4:	85 c0                	test   %eax,%eax
  4020c6:	78 d5                	js     40209d <rio_read+0x15>
  4020c8:	85 c0                	test   %eax,%eax
  4020ca:	74 40                	je     40210c <rio_read+0x84>
  4020cc:	48 89 6b 08          	mov    %rbp,0x8(%rbx)
  4020d0:	eb d5                	jmp    4020a7 <rio_read+0x1f>
  4020d2:	89 e8                	mov    %ebp,%eax
  4020d4:	4c 39 e0             	cmp    %r12,%rax
  4020d7:	72 03                	jb     4020dc <rio_read+0x54>
  4020d9:	44 89 e5             	mov    %r12d,%ebp
  4020dc:	4c 63 e5             	movslq %ebp,%r12
  4020df:	48 8b 73 08          	mov    0x8(%rbx),%rsi
  4020e3:	4c 89 e2             	mov    %r12,%rdx
  4020e6:	4c 89 ef             	mov    %r13,%rdi
  4020e9:	e8 92 ec ff ff       	callq  400d80 <memcpy@plt>
  4020ee:	4c 01 63 08          	add    %r12,0x8(%rbx)
  4020f2:	29 6b 04             	sub    %ebp,0x4(%rbx)
  4020f5:	4c 89 e0             	mov    %r12,%rax
  4020f8:	48 83 c4 08          	add    $0x8,%rsp
  4020fc:	5b                   	pop    %rbx
  4020fd:	5d                   	pop    %rbp
  4020fe:	41 5c                	pop    %r12
  402100:	41 5d                	pop    %r13
  402102:	c3                   	retq   
  402103:	48 c7 c0 ff ff ff ff 	mov    $0xffffffffffffffff,%rax
  40210a:	eb ec                	jmp    4020f8 <rio_read+0x70>
  40210c:	b8 00 00 00 00       	mov    $0x0,%eax
  402111:	eb e5                	jmp    4020f8 <rio_read+0x70>

0000000000402113 <rio_readlineb>:
  402113:	41 55                	push   %r13
  402115:	41 54                	push   %r12
  402117:	55                   	push   %rbp
  402118:	53                   	push   %rbx
  402119:	48 83 ec 18          	sub    $0x18,%rsp
  40211d:	49 89 fd             	mov    %rdi,%r13
  402120:	48 89 f5             	mov    %rsi,%rbp
  402123:	49 89 d4             	mov    %rdx,%r12
  402126:	64 48 8b 04 25 28 00 	mov    %fs:0x28,%rax
  40212d:	00 00 
  40212f:	48 89 44 24 08       	mov    %rax,0x8(%rsp)
  402134:	31 c0                	xor    %eax,%eax
  402136:	bb 01 00 00 00       	mov    $0x1,%ebx
  40213b:	4c 39 e3             	cmp    %r12,%rbx
  40213e:	73 47                	jae    402187 <rio_readlineb+0x74>
  402140:	ba 01 00 00 00       	mov    $0x1,%edx
  402145:	48 8d 74 24 07       	lea    0x7(%rsp),%rsi
  40214a:	4c 89 ef             	mov    %r13,%rdi
  40214d:	e8 36 ff ff ff       	callq  402088 <rio_read>
  402152:	83 f8 01             	cmp    $0x1,%eax
  402155:	75 1c                	jne    402173 <rio_readlineb+0x60>
  402157:	48 8d 45 01          	lea    0x1(%rbp),%rax
  40215b:	0f b6 54 24 07       	movzbl 0x7(%rsp),%edx
  402160:	88 55 00             	mov    %dl,0x0(%rbp)
  402163:	80 7c 24 07 0a       	cmpb   $0xa,0x7(%rsp)
  402168:	74 1a                	je     402184 <rio_readlineb+0x71>
  40216a:	48 83 c3 01          	add    $0x1,%rbx
  40216e:	48 89 c5             	mov    %rax,%rbp
  402171:	eb c8                	jmp    40213b <rio_readlineb+0x28>
  402173:	85 c0                	test   %eax,%eax
  402175:	75 32                	jne    4021a9 <rio_readlineb+0x96>
  402177:	48 83 fb 01          	cmp    $0x1,%rbx
  40217b:	75 0a                	jne    402187 <rio_readlineb+0x74>
  40217d:	b8 00 00 00 00       	mov    $0x0,%eax
  402182:	eb 0a                	jmp    40218e <rio_readlineb+0x7b>
  402184:	48 89 c5             	mov    %rax,%rbp
  402187:	c6 45 00 00          	movb   $0x0,0x0(%rbp)
  40218b:	48 89 d8             	mov    %rbx,%rax
  40218e:	48 8b 4c 24 08       	mov    0x8(%rsp),%rcx
  402193:	64 48 33 0c 25 28 00 	xor    %fs:0x28,%rcx
  40219a:	00 00 
  40219c:	75 14                	jne    4021b2 <rio_readlineb+0x9f>
  40219e:	48 83 c4 18          	add    $0x18,%rsp
  4021a2:	5b                   	pop    %rbx
  4021a3:	5d                   	pop    %rbp
  4021a4:	41 5c                	pop    %r12
  4021a6:	41 5d                	pop    %r13
  4021a8:	c3                   	retq   
  4021a9:	48 c7 c0 ff ff ff ff 	mov    $0xffffffffffffffff,%rax
  4021b0:	eb dc                	jmp    40218e <rio_readlineb+0x7b>
  4021b2:	e8 29 eb ff ff       	callq  400ce0 <__stack_chk_fail@plt>

00000000004021b7 <urlencode>:
  4021b7:	41 54                	push   %r12
  4021b9:	55                   	push   %rbp
  4021ba:	53                   	push   %rbx
  4021bb:	48 83 ec 10          	sub    $0x10,%rsp
  4021bf:	48 89 fb             	mov    %rdi,%rbx
  4021c2:	48 89 f5             	mov    %rsi,%rbp
  4021c5:	64 48 8b 04 25 28 00 	mov    %fs:0x28,%rax
  4021cc:	00 00 
  4021ce:	48 89 44 24 08       	mov    %rax,0x8(%rsp)
  4021d3:	31 c0                	xor    %eax,%eax
  4021d5:	48 c7 c1 ff ff ff ff 	mov    $0xffffffffffffffff,%rcx
  4021dc:	f2 ae                	repnz scas %es:(%rdi),%al
  4021de:	48 89 ce             	mov    %rcx,%rsi
  4021e1:	48 f7 d6             	not    %rsi
  4021e4:	8d 46 ff             	lea    -0x1(%rsi),%eax
  4021e7:	eb 0f                	jmp    4021f8 <urlencode+0x41>
  4021e9:	44 88 45 00          	mov    %r8b,0x0(%rbp)
  4021ed:	48 8d 6d 01          	lea    0x1(%rbp),%rbp
  4021f1:	48 83 c3 01          	add    $0x1,%rbx
  4021f5:	44 89 e0             	mov    %r12d,%eax
  4021f8:	44 8d 60 ff          	lea    -0x1(%rax),%r12d
  4021fc:	85 c0                	test   %eax,%eax
  4021fe:	0f 84 a6 00 00 00    	je     4022aa <urlencode+0xf3>
  402204:	44 0f b6 03          	movzbl (%rbx),%r8d
  402208:	41 80 f8 2a          	cmp    $0x2a,%r8b
  40220c:	0f 94 c2             	sete   %dl
  40220f:	41 80 f8 2d          	cmp    $0x2d,%r8b
  402213:	0f 94 c0             	sete   %al
  402216:	08 c2                	or     %al,%dl
  402218:	75 cf                	jne    4021e9 <urlencode+0x32>
  40221a:	41 80 f8 2e          	cmp    $0x2e,%r8b
  40221e:	74 c9                	je     4021e9 <urlencode+0x32>
  402220:	41 80 f8 5f          	cmp    $0x5f,%r8b
  402224:	74 c3                	je     4021e9 <urlencode+0x32>
  402226:	41 8d 40 d0          	lea    -0x30(%r8),%eax
  40222a:	3c 09                	cmp    $0x9,%al
  40222c:	76 bb                	jbe    4021e9 <urlencode+0x32>
  40222e:	41 8d 40 bf          	lea    -0x41(%r8),%eax
  402232:	3c 19                	cmp    $0x19,%al
  402234:	76 b3                	jbe    4021e9 <urlencode+0x32>
  402236:	41 8d 40 9f          	lea    -0x61(%r8),%eax
  40223a:	3c 19                	cmp    $0x19,%al
  40223c:	76 ab                	jbe    4021e9 <urlencode+0x32>
  40223e:	41 80 f8 20          	cmp    $0x20,%r8b
  402242:	74 54                	je     402298 <urlencode+0xe1>
  402244:	41 8d 40 e0          	lea    -0x20(%r8),%eax
  402248:	3c 5f                	cmp    $0x5f,%al
  40224a:	0f 96 c2             	setbe  %dl
  40224d:	41 80 f8 09          	cmp    $0x9,%r8b
  402251:	0f 94 c0             	sete   %al
  402254:	08 c2                	or     %al,%dl
  402256:	74 4d                	je     4022a5 <urlencode+0xee>
  402258:	45 0f b6 c0          	movzbl %r8b,%r8d
  40225c:	b9 88 35 40 00       	mov    $0x403588,%ecx
  402261:	ba 08 00 00 00       	mov    $0x8,%edx
  402266:	be 01 00 00 00       	mov    $0x1,%esi
  40226b:	48 89 e7             	mov    %rsp,%rdi
  40226e:	b8 00 00 00 00       	mov    $0x0,%eax
  402273:	e8 e8 eb ff ff       	callq  400e60 <__sprintf_chk@plt>
  402278:	0f b6 04 24          	movzbl (%rsp),%eax
  40227c:	88 45 00             	mov    %al,0x0(%rbp)
  40227f:	0f b6 44 24 01       	movzbl 0x1(%rsp),%eax
  402284:	88 45 01             	mov    %al,0x1(%rbp)
  402287:	0f b6 44 24 02       	movzbl 0x2(%rsp),%eax
  40228c:	88 45 02             	mov    %al,0x2(%rbp)
  40228f:	48 8d 6d 03          	lea    0x3(%rbp),%rbp
  402293:	e9 59 ff ff ff       	jmpq   4021f1 <urlencode+0x3a>
  402298:	c6 45 00 2b          	movb   $0x2b,0x0(%rbp)
  40229c:	48 8d 6d 01          	lea    0x1(%rbp),%rbp
  4022a0:	e9 4c ff ff ff       	jmpq   4021f1 <urlencode+0x3a>
  4022a5:	b8 ff ff ff ff       	mov    $0xffffffff,%eax
  4022aa:	48 8b 74 24 08       	mov    0x8(%rsp),%rsi
  4022af:	64 48 33 34 25 28 00 	xor    %fs:0x28,%rsi
  4022b6:	00 00 
  4022b8:	75 09                	jne    4022c3 <urlencode+0x10c>
  4022ba:	48 83 c4 10          	add    $0x10,%rsp
  4022be:	5b                   	pop    %rbx
  4022bf:	5d                   	pop    %rbp
  4022c0:	41 5c                	pop    %r12
  4022c2:	c3                   	retq   
  4022c3:	e8 18 ea ff ff       	callq  400ce0 <__stack_chk_fail@plt>

00000000004022c8 <submitr>:
  4022c8:	41 57                	push   %r15
  4022ca:	41 56                	push   %r14
  4022cc:	41 55                	push   %r13
  4022ce:	41 54                	push   %r12
  4022d0:	55                   	push   %rbp
  4022d1:	53                   	push   %rbx
  4022d2:	48 81 ec 58 a0 00 00 	sub    $0xa058,%rsp
  4022d9:	49 89 fc             	mov    %rdi,%r12
  4022dc:	89 74 24 04          	mov    %esi,0x4(%rsp)
  4022e0:	49 89 d7             	mov    %rdx,%r15
  4022e3:	49 89 ce             	mov    %rcx,%r14
  4022e6:	4c 89 44 24 08       	mov    %r8,0x8(%rsp)
  4022eb:	4d 89 cd             	mov    %r9,%r13
  4022ee:	48 8b ac 24 90 a0 00 	mov    0xa090(%rsp),%rbp
  4022f5:	00 
  4022f6:	64 48 8b 04 25 28 00 	mov    %fs:0x28,%rax
  4022fd:	00 00 
  4022ff:	48 89 84 24 48 a0 00 	mov    %rax,0xa048(%rsp)
  402306:	00 
  402307:	31 c0                	xor    %eax,%eax
  402309:	c7 44 24 1c 00 00 00 	movl   $0x0,0x1c(%rsp)
  402310:	00 
  402311:	ba 00 00 00 00       	mov    $0x0,%edx
  402316:	be 01 00 00 00       	mov    $0x1,%esi
  40231b:	bf 02 00 00 00       	mov    $0x2,%edi
  402320:	e8 4b eb ff ff       	callq  400e70 <socket@plt>
  402325:	85 c0                	test   %eax,%eax
  402327:	0f 88 9b 02 00 00    	js     4025c8 <submitr+0x300>
  40232d:	89 c3                	mov    %eax,%ebx
  40232f:	4c 89 e7             	mov    %r12,%rdi
  402332:	e8 19 ea ff ff       	callq  400d50 <gethostbyname@plt>
  402337:	48 85 c0             	test   %rax,%rax
  40233a:	0f 84 d4 02 00 00    	je     402614 <submitr+0x34c>
  402340:	48 c7 44 24 22 00 00 	movq   $0x0,0x22(%rsp)
  402347:	00 00 
  402349:	c7 44 24 2a 00 00 00 	movl   $0x0,0x2a(%rsp)
  402350:	00 
  402351:	66 c7 44 24 2e 00 00 	movw   $0x0,0x2e(%rsp)
  402358:	66 c7 44 24 20 02 00 	movw   $0x2,0x20(%rsp)
  40235f:	48 63 50 14          	movslq 0x14(%rax),%rdx
  402363:	48 8b 40 18          	mov    0x18(%rax),%rax
  402367:	48 8b 30             	mov    (%rax),%rsi
  40236a:	48 8d 7c 24 24       	lea    0x24(%rsp),%rdi
  40236f:	b9 0c 00 00 00       	mov    $0xc,%ecx
  402374:	e8 e7 e9 ff ff       	callq  400d60 <__memmove_chk@plt>
  402379:	0f b7 44 24 04       	movzwl 0x4(%rsp),%eax
  40237e:	66 c1 c8 08          	ror    $0x8,%ax
  402382:	66 89 44 24 22       	mov    %ax,0x22(%rsp)
  402387:	ba 10 00 00 00       	mov    $0x10,%edx
  40238c:	48 8d 74 24 20       	lea    0x20(%rsp),%rsi
  402391:	89 df                	mov    %ebx,%edi
  402393:	e8 a8 ea ff ff       	callq  400e40 <connect@plt>
  402398:	85 c0                	test   %eax,%eax
  40239a:	0f 88 dc 02 00 00    	js     40267c <submitr+0x3b4>
  4023a0:	48 c7 c6 ff ff ff ff 	mov    $0xffffffffffffffff,%rsi
  4023a7:	b8 00 00 00 00       	mov    $0x0,%eax
  4023ac:	48 89 f1             	mov    %rsi,%rcx
  4023af:	4c 89 ef             	mov    %r13,%rdi
  4023b2:	f2 ae                	repnz scas %es:(%rdi),%al
  4023b4:	48 89 ca             	mov    %rcx,%rdx
  4023b7:	48 f7 d2             	not    %rdx
  4023ba:	48 89 f1             	mov    %rsi,%rcx
  4023bd:	4c 89 ff             	mov    %r15,%rdi
  4023c0:	f2 ae                	repnz scas %es:(%rdi),%al
  4023c2:	48 f7 d1             	not    %rcx
  4023c5:	49 89 c8             	mov    %rcx,%r8
  4023c8:	48 89 f1             	mov    %rsi,%rcx
  4023cb:	4c 89 f7             	mov    %r14,%rdi
  4023ce:	f2 ae                	repnz scas %es:(%rdi),%al
  4023d0:	48 f7 d1             	not    %rcx
  4023d3:	4d 8d 44 08 fe       	lea    -0x2(%r8,%rcx,1),%r8
  4023d8:	48 89 f1             	mov    %rsi,%rcx
  4023db:	48 8b 7c 24 08       	mov    0x8(%rsp),%rdi
  4023e0:	f2 ae                	repnz scas %es:(%rdi),%al
  4023e2:	48 89 c8             	mov    %rcx,%rax
  4023e5:	48 f7 d0             	not    %rax
  4023e8:	49 8d 4c 00 ff       	lea    -0x1(%r8,%rax,1),%rcx
  4023ed:	48 8d 44 52 fd       	lea    -0x3(%rdx,%rdx,2),%rax
  4023f2:	48 8d 84 01 80 00 00 	lea    0x80(%rcx,%rax,1),%rax
  4023f9:	00 
  4023fa:	48 3d 00 20 00 00    	cmp    $0x2000,%rax
  402400:	0f 87 d0 02 00 00    	ja     4026d6 <submitr+0x40e>
  402406:	48 8d b4 24 40 40 00 	lea    0x4040(%rsp),%rsi
  40240d:	00 
  40240e:	b9 00 04 00 00       	mov    $0x400,%ecx
  402413:	b8 00 00 00 00       	mov    $0x0,%eax
  402418:	48 89 f7             	mov    %rsi,%rdi
  40241b:	f3 48 ab             	rep stos %rax,%es:(%rdi)
  40241e:	4c 89 ef             	mov    %r13,%rdi
  402421:	e8 91 fd ff ff       	callq  4021b7 <urlencode>
  402426:	85 c0                	test   %eax,%eax
  402428:	0f 88 1b 03 00 00    	js     402749 <submitr+0x481>
  40242e:	4c 8d ac 24 40 20 00 	lea    0x2040(%rsp),%r13
  402435:	00 
  402436:	41 54                	push   %r12
  402438:	48 8d 84 24 48 40 00 	lea    0x4048(%rsp),%rax
  40243f:	00 
  402440:	50                   	push   %rax
  402441:	4d 89 f9             	mov    %r15,%r9
  402444:	4d 89 f0             	mov    %r14,%r8
  402447:	b9 18 35 40 00       	mov    $0x403518,%ecx
  40244c:	ba 00 20 00 00       	mov    $0x2000,%edx
  402451:	be 01 00 00 00       	mov    $0x1,%esi
  402456:	4c 89 ef             	mov    %r13,%rdi
  402459:	b8 00 00 00 00       	mov    $0x0,%eax
  40245e:	e8 fd e9 ff ff       	callq  400e60 <__sprintf_chk@plt>
  402463:	48 c7 c1 ff ff ff ff 	mov    $0xffffffffffffffff,%rcx
  40246a:	b8 00 00 00 00       	mov    $0x0,%eax
  40246f:	4c 89 ef             	mov    %r13,%rdi
  402472:	f2 ae                	repnz scas %es:(%rdi),%al
  402474:	48 89 ca             	mov    %rcx,%rdx
  402477:	48 f7 d2             	not    %rdx
  40247a:	48 8d 52 ff          	lea    -0x1(%rdx),%rdx
  40247e:	4c 89 ee             	mov    %r13,%rsi
  402481:	89 df                	mov    %ebx,%edi
  402483:	e8 a2 fb ff ff       	callq  40202a <rio_writen>
  402488:	48 83 c4 10          	add    $0x10,%rsp
  40248c:	48 85 c0             	test   %rax,%rax
  40248f:	0f 88 3f 03 00 00    	js     4027d4 <submitr+0x50c>
  402495:	89 de                	mov    %ebx,%esi
  402497:	48 8d 7c 24 30       	lea    0x30(%rsp),%rdi
  40249c:	e8 49 fb ff ff       	callq  401fea <rio_readinitb>
  4024a1:	ba 00 20 00 00       	mov    $0x2000,%edx
  4024a6:	48 8d b4 24 40 20 00 	lea    0x2040(%rsp),%rsi
  4024ad:	00 
  4024ae:	48 8d 7c 24 30       	lea    0x30(%rsp),%rdi
  4024b3:	e8 5b fc ff ff       	callq  402113 <rio_readlineb>
  4024b8:	48 85 c0             	test   %rax,%rax
  4024bb:	0f 8e 82 03 00 00    	jle    402843 <submitr+0x57b>
  4024c1:	4c 8d 84 24 40 80 00 	lea    0x8040(%rsp),%r8
  4024c8:	00 
  4024c9:	48 8d 4c 24 1c       	lea    0x1c(%rsp),%rcx
  4024ce:	48 8d 94 24 40 60 00 	lea    0x6040(%rsp),%rdx
  4024d5:	00 
  4024d6:	be 8f 35 40 00       	mov    $0x40358f,%esi
  4024db:	48 8d bc 24 40 20 00 	lea    0x2040(%rsp),%rdi
  4024e2:	00 
  4024e3:	b8 00 00 00 00       	mov    $0x0,%eax
  4024e8:	e8 d3 e8 ff ff       	callq  400dc0 <__isoc99_sscanf@plt>
  4024ed:	48 8d b4 24 40 20 00 	lea    0x2040(%rsp),%rsi
  4024f4:	00 
  4024f5:	bf a6 35 40 00       	mov    $0x4035a6,%edi
  4024fa:	b9 03 00 00 00       	mov    $0x3,%ecx
  4024ff:	f3 a6                	repz cmpsb %es:(%rdi),%ds:(%rsi)
  402501:	0f 97 c0             	seta   %al
  402504:	1c 00                	sbb    $0x0,%al
  402506:	84 c0                	test   %al,%al
  402508:	0f 84 b3 03 00 00    	je     4028c1 <submitr+0x5f9>
  40250e:	ba 00 20 00 00       	mov    $0x2000,%edx
  402513:	48 8d b4 24 40 20 00 	lea    0x2040(%rsp),%rsi
  40251a:	00 
  40251b:	48 8d 7c 24 30       	lea    0x30(%rsp),%rdi
  402520:	e8 ee fb ff ff       	callq  402113 <rio_readlineb>
  402525:	48 85 c0             	test   %rax,%rax
  402528:	7f c3                	jg     4024ed <submitr+0x225>
  40252a:	48 b8 45 72 72 6f 72 	movabs $0x43203a726f727245,%rax
  402531:	3a 20 43 
  402534:	48 ba 6c 69 65 6e 74 	movabs $0x6e7520746e65696c,%rdx
  40253b:	20 75 6e 
  40253e:	48 89 45 00          	mov    %rax,0x0(%rbp)
  402542:	48 89 55 08          	mov    %rdx,0x8(%rbp)
  402546:	48 b8 61 62 6c 65 20 	movabs $0x206f7420656c6261,%rax
  40254d:	74 6f 20 
  402550:	48 ba 72 65 61 64 20 	movabs $0x6165682064616572,%rdx
  402557:	68 65 61 
  40255a:	48 89 45 10          	mov    %rax,0x10(%rbp)
  40255e:	48 89 55 18          	mov    %rdx,0x18(%rbp)
  402562:	48 b8 64 65 72 73 20 	movabs $0x6f72662073726564,%rax
  402569:	66 72 6f 
  40256c:	48 ba 6d 20 74 68 65 	movabs $0x657220656874206d,%rdx
  402573:	20 72 65 
  402576:	48 89 45 20          	mov    %rax,0x20(%rbp)
  40257a:	48 89 55 28          	mov    %rdx,0x28(%rbp)
  40257e:	48 b8 73 75 6c 74 20 	movabs $0x72657320746c7573,%rax
  402585:	73 65 72 
  402588:	48 89 45 30          	mov    %rax,0x30(%rbp)
  40258c:	c7 45 38 76 65 72 00 	movl   $0x726576,0x38(%rbp)
  402593:	89 df                	mov    %ebx,%edi
  402595:	e8 86 e7 ff ff       	callq  400d20 <close@plt>
  40259a:	b8 ff ff ff ff       	mov    $0xffffffff,%eax
  40259f:	48 8b 9c 24 48 a0 00 	mov    0xa048(%rsp),%rbx
  4025a6:	00 
  4025a7:	64 48 33 1c 25 28 00 	xor    %fs:0x28,%rbx
  4025ae:	00 00 
  4025b0:	0f 85 76 04 00 00    	jne    402a2c <submitr+0x764>
  4025b6:	48 81 c4 58 a0 00 00 	add    $0xa058,%rsp
  4025bd:	5b                   	pop    %rbx
  4025be:	5d                   	pop    %rbp
  4025bf:	41 5c                	pop    %r12
  4025c1:	41 5d                	pop    %r13
  4025c3:	41 5e                	pop    %r14
  4025c5:	41 5f                	pop    %r15
  4025c7:	c3                   	retq   
  4025c8:	48 b8 45 72 72 6f 72 	movabs $0x43203a726f727245,%rax
  4025cf:	3a 20 43 
  4025d2:	48 ba 6c 69 65 6e 74 	movabs $0x6e7520746e65696c,%rdx
  4025d9:	20 75 6e 
  4025dc:	48 89 45 00          	mov    %rax,0x0(%rbp)
  4025e0:	48 89 55 08          	mov    %rdx,0x8(%rbp)
  4025e4:	48 b8 61 62 6c 65 20 	movabs $0x206f7420656c6261,%rax
  4025eb:	74 6f 20 
  4025ee:	48 ba 63 72 65 61 74 	movabs $0x7320657461657263,%rdx
  4025f5:	65 20 73 
  4025f8:	48 89 45 10          	mov    %rax,0x10(%rbp)
  4025fc:	48 89 55 18          	mov    %rdx,0x18(%rbp)
  402600:	c7 45 20 6f 63 6b 65 	movl   $0x656b636f,0x20(%rbp)
  402607:	66 c7 45 24 74 00    	movw   $0x74,0x24(%rbp)
  40260d:	b8 ff ff ff ff       	mov    $0xffffffff,%eax
  402612:	eb 8b                	jmp    40259f <submitr+0x2d7>
  402614:	48 b8 45 72 72 6f 72 	movabs $0x44203a726f727245,%rax
  40261b:	3a 20 44 
  40261e:	48 ba 4e 53 20 69 73 	movabs $0x6e7520736920534e,%rdx
  402625:	20 75 6e 
  402628:	48 89 45 00          	mov    %rax,0x0(%rbp)
  40262c:	48 89 55 08          	mov    %rdx,0x8(%rbp)
  402630:	48 b8 61 62 6c 65 20 	movabs $0x206f7420656c6261,%rax
  402637:	74 6f 20 
  40263a:	48 ba 72 65 73 6f 6c 	movabs $0x2065766c6f736572,%rdx
  402641:	76 65 20 
  402644:	48 89 45 10          	mov    %rax,0x10(%rbp)
  402648:	48 89 55 18          	mov    %rdx,0x18(%rbp)
  40264c:	48 b8 73 65 72 76 65 	movabs $0x6120726576726573,%rax
  402653:	72 20 61 
  402656:	48 89 45 20          	mov    %rax,0x20(%rbp)
  40265a:	c7 45 28 64 64 72 65 	movl   $0x65726464,0x28(%rbp)
  402661:	66 c7 45 2c 73 73    	movw   $0x7373,0x2c(%rbp)
  402667:	c6 45 2e 00          	movb   $0x0,0x2e(%rbp)
  40266b:	89 df                	mov    %ebx,%edi
  40266d:	e8 ae e6 ff ff       	callq  400d20 <close@plt>
  402672:	b8 ff ff ff ff       	mov    $0xffffffff,%eax
  402677:	e9 23 ff ff ff       	jmpq   40259f <submitr+0x2d7>
  40267c:	48 b8 45 72 72 6f 72 	movabs $0x55203a726f727245,%rax
  402683:	3a 20 55 
  402686:	48 ba 6e 61 62 6c 65 	movabs $0x6f7420656c62616e,%rdx
  40268d:	20 74 6f 
  402690:	48 89 45 00          	mov    %rax,0x0(%rbp)
  402694:	48 89 55 08          	mov    %rdx,0x8(%rbp)
  402698:	48 b8 20 63 6f 6e 6e 	movabs $0x7463656e6e6f6320,%rax
  40269f:	65 63 74 
  4026a2:	48 ba 20 74 6f 20 74 	movabs $0x20656874206f7420,%rdx
  4026a9:	68 65 20 
  4026ac:	48 89 45 10          	mov    %rax,0x10(%rbp)
  4026b0:	48 89 55 18          	mov    %rdx,0x18(%rbp)
  4026b4:	c7 45 20 73 65 72 76 	movl   $0x76726573,0x20(%rbp)
  4026bb:	66 c7 45 24 65 72    	movw   $0x7265,0x24(%rbp)
  4026c1:	c6 45 26 00          	movb   $0x0,0x26(%rbp)
  4026c5:	89 df                	mov    %ebx,%edi
  4026c7:	e8 54 e6 ff ff       	callq  400d20 <close@plt>
  4026cc:	b8 ff ff ff ff       	mov    $0xffffffff,%eax
  4026d1:	e9 c9 fe ff ff       	jmpq   40259f <submitr+0x2d7>
  4026d6:	48 b8 45 72 72 6f 72 	movabs $0x52203a726f727245,%rax
  4026dd:	3a 20 52 
  4026e0:	48 ba 65 73 75 6c 74 	movabs $0x747320746c757365,%rdx
  4026e7:	20 73 74 
  4026ea:	48 89 45 00          	mov    %rax,0x0(%rbp)
  4026ee:	48 89 55 08          	mov    %rdx,0x8(%rbp)
  4026f2:	48 b8 72 69 6e 67 20 	movabs $0x6f6f7420676e6972,%rax
  4026f9:	74 6f 6f 
  4026fc:	48 ba 20 6c 61 72 67 	movabs $0x202e656772616c20,%rdx
  402703:	65 2e 20 
  402706:	48 89 45 10          	mov    %rax,0x10(%rbp)
  40270a:	48 89 55 18          	mov    %rdx,0x18(%rbp)
  40270e:	48 b8 49 6e 63 72 65 	movabs $0x6573616572636e49,%rax
  402715:	61 73 65 
  402718:	48 ba 20 53 55 42 4d 	movabs $0x5254494d42555320,%rdx
  40271f:	49 54 52 
  402722:	48 89 45 20          	mov    %rax,0x20(%rbp)
  402726:	48 89 55 28          	mov    %rdx,0x28(%rbp)
  40272a:	48 b8 5f 4d 41 58 42 	movabs $0x46554258414d5f,%rax
  402731:	55 46 00 
  402734:	48 89 45 30          	mov    %rax,0x30(%rbp)
  402738:	89 df                	mov    %ebx,%edi
  40273a:	e8 e1 e5 ff ff       	callq  400d20 <close@plt>
  40273f:	b8 ff ff ff ff       	mov    $0xffffffff,%eax
  402744:	e9 56 fe ff ff       	jmpq   40259f <submitr+0x2d7>
  402749:	48 b8 45 72 72 6f 72 	movabs $0x52203a726f727245,%rax
  402750:	3a 20 52 
  402753:	48 ba 65 73 75 6c 74 	movabs $0x747320746c757365,%rdx
  40275a:	20 73 74 
  40275d:	48 89 45 00          	mov    %rax,0x0(%rbp)
  402761:	48 89 55 08          	mov    %rdx,0x8(%rbp)
  402765:	48 b8 72 69 6e 67 20 	movabs $0x6e6f6320676e6972,%rax
  40276c:	63 6f 6e 
  40276f:	48 ba 74 61 69 6e 73 	movabs $0x6e6120736e696174,%rdx
  402776:	20 61 6e 
  402779:	48 89 45 10          	mov    %rax,0x10(%rbp)
  40277d:	48 89 55 18          	mov    %rdx,0x18(%rbp)
  402781:	48 b8 20 69 6c 6c 65 	movabs $0x6c6167656c6c6920,%rax
  402788:	67 61 6c 
  40278b:	48 ba 20 6f 72 20 75 	movabs $0x72706e7520726f20,%rdx
  402792:	6e 70 72 
  402795:	48 89 45 20          	mov    %rax,0x20(%rbp)
  402799:	48 89 55 28          	mov    %rdx,0x28(%rbp)
  40279d:	48 b8 69 6e 74 61 62 	movabs $0x20656c6261746e69,%rax
  4027a4:	6c 65 20 
  4027a7:	48 ba 63 68 61 72 61 	movabs $0x6574636172616863,%rdx
  4027ae:	63 74 65 
  4027b1:	48 89 45 30          	mov    %rax,0x30(%rbp)
  4027b5:	48 89 55 38          	mov    %rdx,0x38(%rbp)
  4027b9:	66 c7 45 40 72 2e    	movw   $0x2e72,0x40(%rbp)
  4027bf:	c6 45 42 00          	movb   $0x0,0x42(%rbp)
  4027c3:	89 df                	mov    %ebx,%edi
  4027c5:	e8 56 e5 ff ff       	callq  400d20 <close@plt>
  4027ca:	b8 ff ff ff ff       	mov    $0xffffffff,%eax
  4027cf:	e9 cb fd ff ff       	jmpq   40259f <submitr+0x2d7>
  4027d4:	48 b8 45 72 72 6f 72 	movabs $0x43203a726f727245,%rax
  4027db:	3a 20 43 
  4027de:	48 ba 6c 69 65 6e 74 	movabs $0x6e7520746e65696c,%rdx
  4027e5:	20 75 6e 
  4027e8:	48 89 45 00          	mov    %rax,0x0(%rbp)
  4027ec:	48 89 55 08          	mov    %rdx,0x8(%rbp)
  4027f0:	48 b8 61 62 6c 65 20 	movabs $0x206f7420656c6261,%rax
  4027f7:	74 6f 20 
  4027fa:	48 ba 77 72 69 74 65 	movabs $0x6f74206574697277,%rdx
  402801:	20 74 6f 
  402804:	48 89 45 10          	mov    %rax,0x10(%rbp)
  402808:	48 89 55 18          	mov    %rdx,0x18(%rbp)
  40280c:	48 b8 20 74 68 65 20 	movabs $0x7365722065687420,%rax
  402813:	72 65 73 
  402816:	48 ba 75 6c 74 20 73 	movabs $0x7672657320746c75,%rdx
  40281d:	65 72 76 
  402820:	48 89 45 20          	mov    %rax,0x20(%rbp)
  402824:	48 89 55 28          	mov    %rdx,0x28(%rbp)
  402828:	66 c7 45 30 65 72    	movw   $0x7265,0x30(%rbp)
  40282e:	c6 45 32 00          	movb   $0x0,0x32(%rbp)
  402832:	89 df                	mov    %ebx,%edi
  402834:	e8 e7 e4 ff ff       	callq  400d20 <close@plt>
  402839:	b8 ff ff ff ff       	mov    $0xffffffff,%eax
  40283e:	e9 5c fd ff ff       	jmpq   40259f <submitr+0x2d7>
  402843:	48 b8 45 72 72 6f 72 	movabs $0x43203a726f727245,%rax
  40284a:	3a 20 43 
  40284d:	48 ba 6c 69 65 6e 74 	movabs $0x6e7520746e65696c,%rdx
  402854:	20 75 6e 
  402857:	48 89 45 00          	mov    %rax,0x0(%rbp)
  40285b:	48 89 55 08          	mov    %rdx,0x8(%rbp)
  40285f:	48 b8 61 62 6c 65 20 	movabs $0x206f7420656c6261,%rax
  402866:	74 6f 20 
  402869:	48 ba 72 65 61 64 20 	movabs $0x7269662064616572,%rdx
  402870:	66 69 72 
  402873:	48 89 45 10          	mov    %rax,0x10(%rbp)
  402877:	48 89 55 18          	mov    %rdx,0x18(%rbp)
  40287b:	48 b8 73 74 20 68 65 	movabs $0x6564616568207473,%rax
  402882:	61 64 65 
  402885:	48 ba 72 20 66 72 6f 	movabs $0x72206d6f72662072,%rdx
  40288c:	6d 20 72 
  40288f:	48 89 45 20          	mov    %rax,0x20(%rbp)
  402893:	48 89 55 28          	mov    %rdx,0x28(%rbp)
  402897:	48 b8 65 73 75 6c 74 	movabs $0x657320746c757365,%rax
  40289e:	20 73 65 
  4028a1:	48 89 45 30          	mov    %rax,0x30(%rbp)
  4028a5:	c7 45 38 72 76 65 72 	movl   $0x72657672,0x38(%rbp)
  4028ac:	c6 45 3c 00          	movb   $0x0,0x3c(%rbp)
  4028b0:	89 df                	mov    %ebx,%edi
  4028b2:	e8 69 e4 ff ff       	callq  400d20 <close@plt>
  4028b7:	b8 ff ff ff ff       	mov    $0xffffffff,%eax
  4028bc:	e9 de fc ff ff       	jmpq   40259f <submitr+0x2d7>
  4028c1:	ba 00 20 00 00       	mov    $0x2000,%edx
  4028c6:	48 8d b4 24 40 20 00 	lea    0x2040(%rsp),%rsi
  4028cd:	00 
  4028ce:	48 8d 7c 24 30       	lea    0x30(%rsp),%rdi
  4028d3:	e8 3b f8 ff ff       	callq  402113 <rio_readlineb>
  4028d8:	48 85 c0             	test   %rax,%rax
  4028db:	0f 8e 90 00 00 00    	jle    402971 <submitr+0x6a9>
  4028e1:	44 8b 44 24 1c       	mov    0x1c(%rsp),%r8d
  4028e6:	41 81 f8 c8 00 00 00 	cmp    $0xc8,%r8d
  4028ed:	0f 85 02 01 00 00    	jne    4029f5 <submitr+0x72d>
  4028f3:	48 8d b4 24 40 20 00 	lea    0x2040(%rsp),%rsi
  4028fa:	00 
  4028fb:	48 89 ef             	mov    %rbp,%rdi
  4028fe:	e8 ad e3 ff ff       	callq  400cb0 <strcpy@plt>
  402903:	89 df                	mov    %ebx,%edi
  402905:	e8 16 e4 ff ff       	callq  400d20 <close@plt>
  40290a:	bf a0 35 40 00       	mov    $0x4035a0,%edi
  40290f:	b9 04 00 00 00       	mov    $0x4,%ecx
  402914:	48 89 ee             	mov    %rbp,%rsi
  402917:	f3 a6                	repz cmpsb %es:(%rdi),%ds:(%rsi)
  402919:	0f 97 c0             	seta   %al
  40291c:	1c 00                	sbb    $0x0,%al
  40291e:	0f be c0             	movsbl %al,%eax
  402921:	85 c0                	test   %eax,%eax
  402923:	0f 84 76 fc ff ff    	je     40259f <submitr+0x2d7>
  402929:	bf a4 35 40 00       	mov    $0x4035a4,%edi
  40292e:	b9 05 00 00 00       	mov    $0x5,%ecx
  402933:	48 89 ee             	mov    %rbp,%rsi
  402936:	f3 a6                	repz cmpsb %es:(%rdi),%ds:(%rsi)
  402938:	0f 97 c0             	seta   %al
  40293b:	1c 00                	sbb    $0x0,%al
  40293d:	0f be c0             	movsbl %al,%eax
  402940:	85 c0                	test   %eax,%eax
  402942:	0f 84 57 fc ff ff    	je     40259f <submitr+0x2d7>
  402948:	bf a9 35 40 00       	mov    $0x4035a9,%edi
  40294d:	b9 03 00 00 00       	mov    $0x3,%ecx
  402952:	48 89 ee             	mov    %rbp,%rsi
  402955:	f3 a6                	repz cmpsb %es:(%rdi),%ds:(%rsi)
  402957:	0f 97 c0             	seta   %al
  40295a:	1c 00                	sbb    $0x0,%al
  40295c:	0f be c0             	movsbl %al,%eax
  40295f:	85 c0                	test   %eax,%eax
  402961:	0f 84 38 fc ff ff    	je     40259f <submitr+0x2d7>
  402967:	b8 ff ff ff ff       	mov    $0xffffffff,%eax
  40296c:	e9 2e fc ff ff       	jmpq   40259f <submitr+0x2d7>
  402971:	48 b8 45 72 72 6f 72 	movabs $0x43203a726f727245,%rax
  402978:	3a 20 43 
  40297b:	48 ba 6c 69 65 6e 74 	movabs $0x6e7520746e65696c,%rdx
  402982:	20 75 6e 
  402985:	48 89 45 00          	mov    %rax,0x0(%rbp)
  402989:	48 89 55 08          	mov    %rdx,0x8(%rbp)
  40298d:	48 b8 61 62 6c 65 20 	movabs $0x206f7420656c6261,%rax
  402994:	74 6f 20 
  402997:	48 ba 72 65 61 64 20 	movabs $0x6174732064616572,%rdx
  40299e:	73 74 61 
  4029a1:	48 89 45 10          	mov    %rax,0x10(%rbp)
  4029a5:	48 89 55 18          	mov    %rdx,0x18(%rbp)
  4029a9:	48 b8 74 75 73 20 6d 	movabs $0x7373656d20737574,%rax
  4029b0:	65 73 73 
  4029b3:	48 ba 61 67 65 20 66 	movabs $0x6d6f726620656761,%rdx
  4029ba:	72 6f 6d 
  4029bd:	48 89 45 20          	mov    %rax,0x20(%rbp)
  4029c1:	48 89 55 28          	mov    %rdx,0x28(%rbp)
  4029c5:	48 b8 20 72 65 73 75 	movabs $0x20746c7573657220,%rax
  4029cc:	6c 74 20 
  4029cf:	48 89 45 30          	mov    %rax,0x30(%rbp)
  4029d3:	c7 45 38 73 65 72 76 	movl   $0x76726573,0x38(%rbp)
  4029da:	66 c7 45 3c 65 72    	movw   $0x7265,0x3c(%rbp)
  4029e0:	c6 45 3e 00          	movb   $0x0,0x3e(%rbp)
  4029e4:	89 df                	mov    %ebx,%edi
  4029e6:	e8 35 e3 ff ff       	callq  400d20 <close@plt>
  4029eb:	b8 ff ff ff ff       	mov    $0xffffffff,%eax
  4029f0:	e9 aa fb ff ff       	jmpq   40259f <submitr+0x2d7>
  4029f5:	4c 8d 8c 24 40 80 00 	lea    0x8040(%rsp),%r9
  4029fc:	00 
  4029fd:	b9 58 35 40 00       	mov    $0x403558,%ecx
  402a02:	48 c7 c2 ff ff ff ff 	mov    $0xffffffffffffffff,%rdx
  402a09:	be 01 00 00 00       	mov    $0x1,%esi
  402a0e:	48 89 ef             	mov    %rbp,%rdi
  402a11:	b8 00 00 00 00       	mov    $0x0,%eax
  402a16:	e8 45 e4 ff ff       	callq  400e60 <__sprintf_chk@plt>
  402a1b:	89 df                	mov    %ebx,%edi
  402a1d:	e8 fe e2 ff ff       	callq  400d20 <close@plt>
  402a22:	b8 ff ff ff ff       	mov    $0xffffffff,%eax
  402a27:	e9 73 fb ff ff       	jmpq   40259f <submitr+0x2d7>
  402a2c:	e8 af e2 ff ff       	callq  400ce0 <__stack_chk_fail@plt>

0000000000402a31 <init_timeout>:
  402a31:	85 ff                	test   %edi,%edi
  402a33:	74 26                	je     402a5b <init_timeout+0x2a>
  402a35:	53                   	push   %rbx
  402a36:	89 fb                	mov    %edi,%ebx
  402a38:	85 ff                	test   %edi,%edi
  402a3a:	78 18                	js     402a54 <init_timeout+0x23>
  402a3c:	be fc 1f 40 00       	mov    $0x401ffc,%esi
  402a41:	bf 0e 00 00 00       	mov    $0xe,%edi
  402a46:	e8 f5 e2 ff ff       	callq  400d40 <signal@plt>
  402a4b:	89 df                	mov    %ebx,%edi
  402a4d:	e8 be e2 ff ff       	callq  400d10 <alarm@plt>
  402a52:	5b                   	pop    %rbx
  402a53:	c3                   	retq   
  402a54:	bb 00 00 00 00       	mov    $0x0,%ebx
  402a59:	eb e1                	jmp    402a3c <init_timeout+0xb>
  402a5b:	f3 c3                	repz retq 

0000000000402a5d <init_driver>:
  402a5d:	55                   	push   %rbp
  402a5e:	53                   	push   %rbx
  402a5f:	48 83 ec 28          	sub    $0x28,%rsp
  402a63:	48 89 fd             	mov    %rdi,%rbp
  402a66:	64 48 8b 04 25 28 00 	mov    %fs:0x28,%rax
  402a6d:	00 00 
  402a6f:	48 89 44 24 18       	mov    %rax,0x18(%rsp)
  402a74:	31 c0                	xor    %eax,%eax
  402a76:	be 01 00 00 00       	mov    $0x1,%esi
  402a7b:	bf 0d 00 00 00       	mov    $0xd,%edi
  402a80:	e8 bb e2 ff ff       	callq  400d40 <signal@plt>
  402a85:	be 01 00 00 00       	mov    $0x1,%esi
  402a8a:	bf 1d 00 00 00       	mov    $0x1d,%edi
  402a8f:	e8 ac e2 ff ff       	callq  400d40 <signal@plt>
  402a94:	be 01 00 00 00       	mov    $0x1,%esi
  402a99:	bf 1d 00 00 00       	mov    $0x1d,%edi
  402a9e:	e8 9d e2 ff ff       	callq  400d40 <signal@plt>
  402aa3:	ba 00 00 00 00       	mov    $0x0,%edx
  402aa8:	be 01 00 00 00       	mov    $0x1,%esi
  402aad:	bf 02 00 00 00       	mov    $0x2,%edi
  402ab2:	e8 b9 e3 ff ff       	callq  400e70 <socket@plt>
  402ab7:	85 c0                	test   %eax,%eax
  402ab9:	0f 88 9c 00 00 00    	js     402b5b <init_driver+0xfe>
  402abf:	89 c3                	mov    %eax,%ebx
  402ac1:	bf ac 35 40 00       	mov    $0x4035ac,%edi
  402ac6:	e8 85 e2 ff ff       	callq  400d50 <gethostbyname@plt>
  402acb:	48 85 c0             	test   %rax,%rax
  402ace:	0f 84 d3 00 00 00    	je     402ba7 <init_driver+0x14a>
  402ad4:	48 c7 44 24 02 00 00 	movq   $0x0,0x2(%rsp)
  402adb:	00 00 
  402add:	c7 44 24 0a 00 00 00 	movl   $0x0,0xa(%rsp)
  402ae4:	00 
  402ae5:	66 c7 44 24 0e 00 00 	movw   $0x0,0xe(%rsp)
  402aec:	66 c7 04 24 02 00    	movw   $0x2,(%rsp)
  402af2:	48 63 50 14          	movslq 0x14(%rax),%rdx
  402af6:	48 8b 40 18          	mov    0x18(%rax),%rax
  402afa:	48 8b 30             	mov    (%rax),%rsi
  402afd:	48 8d 7c 24 04       	lea    0x4(%rsp),%rdi
  402b02:	b9 0c 00 00 00       	mov    $0xc,%ecx
  402b07:	e8 54 e2 ff ff       	callq  400d60 <__memmove_chk@plt>
  402b0c:	66 c7 44 24 02 3c 9a 	movw   $0x9a3c,0x2(%rsp)
  402b13:	ba 10 00 00 00       	mov    $0x10,%edx
  402b18:	48 89 e6             	mov    %rsp,%rsi
  402b1b:	89 df                	mov    %ebx,%edi
  402b1d:	e8 1e e3 ff ff       	callq  400e40 <connect@plt>
  402b22:	85 c0                	test   %eax,%eax
  402b24:	0f 88 e5 00 00 00    	js     402c0f <init_driver+0x1b2>
  402b2a:	89 df                	mov    %ebx,%edi
  402b2c:	e8 ef e1 ff ff       	callq  400d20 <close@plt>
  402b31:	66 c7 45 00 4f 4b    	movw   $0x4b4f,0x0(%rbp)
  402b37:	c6 45 02 00          	movb   $0x0,0x2(%rbp)
  402b3b:	b8 00 00 00 00       	mov    $0x0,%eax
  402b40:	48 8b 4c 24 18       	mov    0x18(%rsp),%rcx
  402b45:	64 48 33 0c 25 28 00 	xor    %fs:0x28,%rcx
  402b4c:	00 00 
  402b4e:	0f 85 0e 01 00 00    	jne    402c62 <init_driver+0x205>
  402b54:	48 83 c4 28          	add    $0x28,%rsp
  402b58:	5b                   	pop    %rbx
  402b59:	5d                   	pop    %rbp
  402b5a:	c3                   	retq   
  402b5b:	48 b8 45 72 72 6f 72 	movabs $0x43203a726f727245,%rax
  402b62:	3a 20 43 
  402b65:	48 ba 6c 69 65 6e 74 	movabs $0x6e7520746e65696c,%rdx
  402b6c:	20 75 6e 
  402b6f:	48 89 45 00          	mov    %rax,0x0(%rbp)
  402b73:	48 89 55 08          	mov    %rdx,0x8(%rbp)
  402b77:	48 b8 61 62 6c 65 20 	movabs $0x206f7420656c6261,%rax
  402b7e:	74 6f 20 
  402b81:	48 ba 63 72 65 61 74 	movabs $0x7320657461657263,%rdx
  402b88:	65 20 73 
  402b8b:	48 89 45 10          	mov    %rax,0x10(%rbp)
  402b8f:	48 89 55 18          	mov    %rdx,0x18(%rbp)
  402b93:	c7 45 20 6f 63 6b 65 	movl   $0x656b636f,0x20(%rbp)
  402b9a:	66 c7 45 24 74 00    	movw   $0x74,0x24(%rbp)
  402ba0:	b8 ff ff ff ff       	mov    $0xffffffff,%eax
  402ba5:	eb 99                	jmp    402b40 <init_driver+0xe3>
  402ba7:	48 b8 45 72 72 6f 72 	movabs $0x44203a726f727245,%rax
  402bae:	3a 20 44 
  402bb1:	48 ba 4e 53 20 69 73 	movabs $0x6e7520736920534e,%rdx
  402bb8:	20 75 6e 
  402bbb:	48 89 45 00          	mov    %rax,0x0(%rbp)
  402bbf:	48 89 55 08          	mov    %rdx,0x8(%rbp)
  402bc3:	48 b8 61 62 6c 65 20 	movabs $0x206f7420656c6261,%rax
  402bca:	74 6f 20 
  402bcd:	48 ba 72 65 73 6f 6c 	movabs $0x2065766c6f736572,%rdx
  402bd4:	76 65 20 
  402bd7:	48 89 45 10          	mov    %rax,0x10(%rbp)
  402bdb:	48 89 55 18          	mov    %rdx,0x18(%rbp)
  402bdf:	48 b8 73 65 72 76 65 	movabs $0x6120726576726573,%rax
  402be6:	72 20 61 
  402be9:	48 89 45 20          	mov    %rax,0x20(%rbp)
  402bed:	c7 45 28 64 64 72 65 	movl   $0x65726464,0x28(%rbp)
  402bf4:	66 c7 45 2c 73 73    	movw   $0x7373,0x2c(%rbp)
  402bfa:	c6 45 2e 00          	movb   $0x0,0x2e(%rbp)
  402bfe:	89 df                	mov    %ebx,%edi
  402c00:	e8 1b e1 ff ff       	callq  400d20 <close@plt>
  402c05:	b8 ff ff ff ff       	mov    $0xffffffff,%eax
  402c0a:	e9 31 ff ff ff       	jmpq   402b40 <init_driver+0xe3>
  402c0f:	48 b8 45 72 72 6f 72 	movabs $0x55203a726f727245,%rax
  402c16:	3a 20 55 
  402c19:	48 ba 6e 61 62 6c 65 	movabs $0x6f7420656c62616e,%rdx
  402c20:	20 74 6f 
  402c23:	48 89 45 00          	mov    %rax,0x0(%rbp)
  402c27:	48 89 55 08          	mov    %rdx,0x8(%rbp)
  402c2b:	48 b8 20 63 6f 6e 6e 	movabs $0x7463656e6e6f6320,%rax
  402c32:	65 63 74 
  402c35:	48 ba 20 74 6f 20 73 	movabs $0x76726573206f7420,%rdx
  402c3c:	65 72 76 
  402c3f:	48 89 45 10          	mov    %rax,0x10(%rbp)
  402c43:	48 89 55 18          	mov    %rdx,0x18(%rbp)
  402c47:	66 c7 45 20 65 72    	movw   $0x7265,0x20(%rbp)
  402c4d:	c6 45 22 00          	movb   $0x0,0x22(%rbp)
  402c51:	89 df                	mov    %ebx,%edi
  402c53:	e8 c8 e0 ff ff       	callq  400d20 <close@plt>
  402c58:	b8 ff ff ff ff       	mov    $0xffffffff,%eax
  402c5d:	e9 de fe ff ff       	jmpq   402b40 <init_driver+0xe3>
  402c62:	e8 79 e0 ff ff       	callq  400ce0 <__stack_chk_fail@plt>

0000000000402c67 <driver_post>:
  402c67:	53                   	push   %rbx
  402c68:	4c 89 cb             	mov    %r9,%rbx
  402c6b:	45 85 c0             	test   %r8d,%r8d
  402c6e:	75 18                	jne    402c88 <driver_post+0x21>
  402c70:	48 85 ff             	test   %rdi,%rdi
  402c73:	74 05                	je     402c7a <driver_post+0x13>
  402c75:	80 3f 00             	cmpb   $0x0,(%rdi)
  402c78:	75 35                	jne    402caf <driver_post+0x48>
  402c7a:	66 c7 03 4f 4b       	movw   $0x4b4f,(%rbx)
  402c7f:	c6 43 02 00          	movb   $0x0,0x2(%rbx)
  402c83:	44 89 c0             	mov    %r8d,%eax
  402c86:	5b                   	pop    %rbx
  402c87:	c3                   	retq   
  402c88:	48 89 ca             	mov    %rcx,%rdx
  402c8b:	be c4 35 40 00       	mov    $0x4035c4,%esi
  402c90:	bf 01 00 00 00       	mov    $0x1,%edi
  402c95:	b8 00 00 00 00       	mov    $0x0,%eax
  402c9a:	e8 41 e1 ff ff       	callq  400de0 <__printf_chk@plt>
  402c9f:	66 c7 03 4f 4b       	movw   $0x4b4f,(%rbx)
  402ca4:	c6 43 02 00          	movb   $0x0,0x2(%rbx)
  402ca8:	b8 00 00 00 00       	mov    $0x0,%eax
  402cad:	eb d7                	jmp    402c86 <driver_post+0x1f>
  402caf:	48 83 ec 08          	sub    $0x8,%rsp
  402cb3:	41 51                	push   %r9
  402cb5:	49 89 c9             	mov    %rcx,%r9
  402cb8:	49 89 d0             	mov    %rdx,%r8
  402cbb:	48 89 f9             	mov    %rdi,%rcx
  402cbe:	48 89 f2             	mov    %rsi,%rdx
  402cc1:	be 9a 3c 00 00       	mov    $0x3c9a,%esi
  402cc6:	bf ac 35 40 00       	mov    $0x4035ac,%edi
  402ccb:	e8 f8 f5 ff ff       	callq  4022c8 <submitr>
  402cd0:	48 83 c4 10          	add    $0x10,%rsp
  402cd4:	eb b0                	jmp    402c86 <driver_post+0x1f>

0000000000402cd6 <check>:
  402cd6:	89 f8                	mov    %edi,%eax
  402cd8:	c1 e8 1c             	shr    $0x1c,%eax
  402cdb:	85 c0                	test   %eax,%eax
  402cdd:	74 1d                	je     402cfc <check+0x26>
  402cdf:	b9 00 00 00 00       	mov    $0x0,%ecx
  402ce4:	83 f9 1f             	cmp    $0x1f,%ecx
  402ce7:	7f 0d                	jg     402cf6 <check+0x20>
  402ce9:	89 f8                	mov    %edi,%eax
  402ceb:	d3 e8                	shr    %cl,%eax
  402ced:	3c 0a                	cmp    $0xa,%al
  402cef:	74 11                	je     402d02 <check+0x2c>
  402cf1:	83 c1 08             	add    $0x8,%ecx
  402cf4:	eb ee                	jmp    402ce4 <check+0xe>
  402cf6:	b8 01 00 00 00       	mov    $0x1,%eax
  402cfb:	c3                   	retq   
  402cfc:	b8 00 00 00 00       	mov    $0x0,%eax
  402d01:	c3                   	retq   
  402d02:	b8 00 00 00 00       	mov    $0x0,%eax
  402d07:	c3                   	retq   

0000000000402d08 <gencookie>:
  402d08:	53                   	push   %rbx
  402d09:	83 c7 01             	add    $0x1,%edi
  402d0c:	e8 7f df ff ff       	callq  400c90 <srandom@plt>
  402d11:	e8 8a e0 ff ff       	callq  400da0 <random@plt>
  402d16:	89 c3                	mov    %eax,%ebx
  402d18:	89 c7                	mov    %eax,%edi
  402d1a:	e8 b7 ff ff ff       	callq  402cd6 <check>
  402d1f:	85 c0                	test   %eax,%eax
  402d21:	74 ee                	je     402d11 <gencookie+0x9>
  402d23:	89 d8                	mov    %ebx,%eax
  402d25:	5b                   	pop    %rbx
  402d26:	c3                   	retq   
  402d27:	66 0f 1f 84 00 00 00 	nopw   0x0(%rax,%rax,1)
  402d2e:	00 00 

0000000000402d30 <__libc_csu_init>:
  402d30:	41 57                	push   %r15
  402d32:	41 56                	push   %r14
  402d34:	49 89 d7             	mov    %rdx,%r15
  402d37:	41 55                	push   %r13
  402d39:	41 54                	push   %r12
  402d3b:	4c 8d 25 ce 10 20 00 	lea    0x2010ce(%rip),%r12        # 603e10 <__frame_dummy_init_array_entry>
  402d42:	55                   	push   %rbp
  402d43:	48 8d 2d ce 10 20 00 	lea    0x2010ce(%rip),%rbp        # 603e18 <__init_array_end>
  402d4a:	53                   	push   %rbx
  402d4b:	41 89 fd             	mov    %edi,%r13d
  402d4e:	49 89 f6             	mov    %rsi,%r14
  402d51:	4c 29 e5             	sub    %r12,%rbp
  402d54:	48 83 ec 08          	sub    $0x8,%rsp
  402d58:	48 c1 fd 03          	sar    $0x3,%rbp
  402d5c:	e8 e7 de ff ff       	callq  400c48 <_init>
  402d61:	48 85 ed             	test   %rbp,%rbp
  402d64:	74 20                	je     402d86 <__libc_csu_init+0x56>
  402d66:	31 db                	xor    %ebx,%ebx
  402d68:	0f 1f 84 00 00 00 00 	nopl   0x0(%rax,%rax,1)
  402d6f:	00 
  402d70:	4c 89 fa             	mov    %r15,%rdx
  402d73:	4c 89 f6             	mov    %r14,%rsi
  402d76:	44 89 ef             	mov    %r13d,%edi
  402d79:	41 ff 14 dc          	callq  *(%r12,%rbx,8)
  402d7d:	48 83 c3 01          	add    $0x1,%rbx
  402d81:	48 39 dd             	cmp    %rbx,%rbp
  402d84:	75 ea                	jne    402d70 <__libc_csu_init+0x40>
  402d86:	48 83 c4 08          	add    $0x8,%rsp
  402d8a:	5b                   	pop    %rbx
  402d8b:	5d                   	pop    %rbp
  402d8c:	41 5c                	pop    %r12
  402d8e:	41 5d                	pop    %r13
  402d90:	41 5e                	pop    %r14
  402d92:	41 5f                	pop    %r15
  402d94:	c3                   	retq   
  402d95:	90                   	nop
  402d96:	66 2e 0f 1f 84 00 00 	nopw   %cs:0x0(%rax,%rax,1)
  402d9d:	00 00 00 

0000000000402da0 <__libc_csu_fini>:
  402da0:	f3 c3                	repz retq 

Disassembly of section .fini:

0000000000402da4 <_fini>:
  402da4:	48 83 ec 08          	sub    $0x8,%rsp
  402da8:	48 83 c4 08          	add    $0x8,%rsp
  402dac:	c3                   	retq   
