
rtarget:     file format elf64-x86-64


Disassembly of section .init:

0000000000400c48 <_init>:
  400c48:	48 83 ec 08          	sub    $0x8,%rsp
  400c4c:	48 8b 05 a5 43 20 00 	mov    0x2043a5(%rip),%rax        # 604ff8 <__gmon_start__>
  400c53:	48 85 c0             	test   %rax,%rax
  400c56:	74 02                	je     400c5a <_init+0x12>
  400c58:	ff d0                	callq  *%rax
  400c5a:	48 83 c4 08          	add    $0x8,%rsp
  400c5e:	c3                   	retq   

Disassembly of section .plt:

0000000000400c60 <.plt>:
  400c60:	ff 35 a2 43 20 00    	pushq  0x2043a2(%rip)        # 605008 <_GLOBAL_OFFSET_TABLE_+0x8>
  400c66:	ff 25 a4 43 20 00    	jmpq   *0x2043a4(%rip)        # 605010 <_GLOBAL_OFFSET_TABLE_+0x10>
  400c6c:	0f 1f 40 00          	nopl   0x0(%rax)

0000000000400c70 <strcasecmp@plt>:
  400c70:	ff 25 a2 43 20 00    	jmpq   *0x2043a2(%rip)        # 605018 <strcasecmp@GLIBC_2.2.5>
  400c76:	68 00 00 00 00       	pushq  $0x0
  400c7b:	e9 e0 ff ff ff       	jmpq   400c60 <.plt>

0000000000400c80 <__errno_location@plt>:
  400c80:	ff 25 9a 43 20 00    	jmpq   *0x20439a(%rip)        # 605020 <__errno_location@GLIBC_2.2.5>
  400c86:	68 01 00 00 00       	pushq  $0x1
  400c8b:	e9 d0 ff ff ff       	jmpq   400c60 <.plt>

0000000000400c90 <srandom@plt>:
  400c90:	ff 25 92 43 20 00    	jmpq   *0x204392(%rip)        # 605028 <srandom@GLIBC_2.2.5>
  400c96:	68 02 00 00 00       	pushq  $0x2
  400c9b:	e9 c0 ff ff ff       	jmpq   400c60 <.plt>

0000000000400ca0 <strncmp@plt>:
  400ca0:	ff 25 8a 43 20 00    	jmpq   *0x20438a(%rip)        # 605030 <strncmp@GLIBC_2.2.5>
  400ca6:	68 03 00 00 00       	pushq  $0x3
  400cab:	e9 b0 ff ff ff       	jmpq   400c60 <.plt>

0000000000400cb0 <strcpy@plt>:
  400cb0:	ff 25 82 43 20 00    	jmpq   *0x204382(%rip)        # 605038 <strcpy@GLIBC_2.2.5>
  400cb6:	68 04 00 00 00       	pushq  $0x4
  400cbb:	e9 a0 ff ff ff       	jmpq   400c60 <.plt>

0000000000400cc0 <puts@plt>:
  400cc0:	ff 25 7a 43 20 00    	jmpq   *0x20437a(%rip)        # 605040 <puts@GLIBC_2.2.5>
  400cc6:	68 05 00 00 00       	pushq  $0x5
  400ccb:	e9 90 ff ff ff       	jmpq   400c60 <.plt>

0000000000400cd0 <write@plt>:
  400cd0:	ff 25 72 43 20 00    	jmpq   *0x204372(%rip)        # 605048 <write@GLIBC_2.2.5>
  400cd6:	68 06 00 00 00       	pushq  $0x6
  400cdb:	e9 80 ff ff ff       	jmpq   400c60 <.plt>

0000000000400ce0 <__stack_chk_fail@plt>:
  400ce0:	ff 25 6a 43 20 00    	jmpq   *0x20436a(%rip)        # 605050 <__stack_chk_fail@GLIBC_2.4>
  400ce6:	68 07 00 00 00       	pushq  $0x7
  400ceb:	e9 70 ff ff ff       	jmpq   400c60 <.plt>

0000000000400cf0 <mmap@plt>:
  400cf0:	ff 25 62 43 20 00    	jmpq   *0x204362(%rip)        # 605058 <mmap@GLIBC_2.2.5>
  400cf6:	68 08 00 00 00       	pushq  $0x8
  400cfb:	e9 60 ff ff ff       	jmpq   400c60 <.plt>

0000000000400d00 <memset@plt>:
  400d00:	ff 25 5a 43 20 00    	jmpq   *0x20435a(%rip)        # 605060 <memset@GLIBC_2.2.5>
  400d06:	68 09 00 00 00       	pushq  $0x9
  400d0b:	e9 50 ff ff ff       	jmpq   400c60 <.plt>

0000000000400d10 <alarm@plt>:
  400d10:	ff 25 52 43 20 00    	jmpq   *0x204352(%rip)        # 605068 <alarm@GLIBC_2.2.5>
  400d16:	68 0a 00 00 00       	pushq  $0xa
  400d1b:	e9 40 ff ff ff       	jmpq   400c60 <.plt>

0000000000400d20 <close@plt>:
  400d20:	ff 25 4a 43 20 00    	jmpq   *0x20434a(%rip)        # 605070 <close@GLIBC_2.2.5>
  400d26:	68 0b 00 00 00       	pushq  $0xb
  400d2b:	e9 30 ff ff ff       	jmpq   400c60 <.plt>

0000000000400d30 <read@plt>:
  400d30:	ff 25 42 43 20 00    	jmpq   *0x204342(%rip)        # 605078 <read@GLIBC_2.2.5>
  400d36:	68 0c 00 00 00       	pushq  $0xc
  400d3b:	e9 20 ff ff ff       	jmpq   400c60 <.plt>

0000000000400d40 <signal@plt>:
  400d40:	ff 25 3a 43 20 00    	jmpq   *0x20433a(%rip)        # 605080 <signal@GLIBC_2.2.5>
  400d46:	68 0d 00 00 00       	pushq  $0xd
  400d4b:	e9 10 ff ff ff       	jmpq   400c60 <.plt>

0000000000400d50 <gethostbyname@plt>:
  400d50:	ff 25 32 43 20 00    	jmpq   *0x204332(%rip)        # 605088 <gethostbyname@GLIBC_2.2.5>
  400d56:	68 0e 00 00 00       	pushq  $0xe
  400d5b:	e9 00 ff ff ff       	jmpq   400c60 <.plt>

0000000000400d60 <__memmove_chk@plt>:
  400d60:	ff 25 2a 43 20 00    	jmpq   *0x20432a(%rip)        # 605090 <__memmove_chk@GLIBC_2.3.4>
  400d66:	68 0f 00 00 00       	pushq  $0xf
  400d6b:	e9 f0 fe ff ff       	jmpq   400c60 <.plt>

0000000000400d70 <strtol@plt>:
  400d70:	ff 25 22 43 20 00    	jmpq   *0x204322(%rip)        # 605098 <strtol@GLIBC_2.2.5>
  400d76:	68 10 00 00 00       	pushq  $0x10
  400d7b:	e9 e0 fe ff ff       	jmpq   400c60 <.plt>

0000000000400d80 <memcpy@plt>:
  400d80:	ff 25 1a 43 20 00    	jmpq   *0x20431a(%rip)        # 6050a0 <memcpy@GLIBC_2.14>
  400d86:	68 11 00 00 00       	pushq  $0x11
  400d8b:	e9 d0 fe ff ff       	jmpq   400c60 <.plt>

0000000000400d90 <time@plt>:
  400d90:	ff 25 12 43 20 00    	jmpq   *0x204312(%rip)        # 6050a8 <time@GLIBC_2.2.5>
  400d96:	68 12 00 00 00       	pushq  $0x12
  400d9b:	e9 c0 fe ff ff       	jmpq   400c60 <.plt>

0000000000400da0 <random@plt>:
  400da0:	ff 25 0a 43 20 00    	jmpq   *0x20430a(%rip)        # 6050b0 <random@GLIBC_2.2.5>
  400da6:	68 13 00 00 00       	pushq  $0x13
  400dab:	e9 b0 fe ff ff       	jmpq   400c60 <.plt>

0000000000400db0 <_IO_getc@plt>:
  400db0:	ff 25 02 43 20 00    	jmpq   *0x204302(%rip)        # 6050b8 <_IO_getc@GLIBC_2.2.5>
  400db6:	68 14 00 00 00       	pushq  $0x14
  400dbb:	e9 a0 fe ff ff       	jmpq   400c60 <.plt>

0000000000400dc0 <__isoc99_sscanf@plt>:
  400dc0:	ff 25 fa 42 20 00    	jmpq   *0x2042fa(%rip)        # 6050c0 <__isoc99_sscanf@GLIBC_2.7>
  400dc6:	68 15 00 00 00       	pushq  $0x15
  400dcb:	e9 90 fe ff ff       	jmpq   400c60 <.plt>

0000000000400dd0 <munmap@plt>:
  400dd0:	ff 25 f2 42 20 00    	jmpq   *0x2042f2(%rip)        # 6050c8 <munmap@GLIBC_2.2.5>
  400dd6:	68 16 00 00 00       	pushq  $0x16
  400ddb:	e9 80 fe ff ff       	jmpq   400c60 <.plt>

0000000000400de0 <__printf_chk@plt>:
  400de0:	ff 25 ea 42 20 00    	jmpq   *0x2042ea(%rip)        # 6050d0 <__printf_chk@GLIBC_2.3.4>
  400de6:	68 17 00 00 00       	pushq  $0x17
  400deb:	e9 70 fe ff ff       	jmpq   400c60 <.plt>

0000000000400df0 <fopen@plt>:
  400df0:	ff 25 e2 42 20 00    	jmpq   *0x2042e2(%rip)        # 6050d8 <fopen@GLIBC_2.2.5>
  400df6:	68 18 00 00 00       	pushq  $0x18
  400dfb:	e9 60 fe ff ff       	jmpq   400c60 <.plt>

0000000000400e00 <getopt@plt>:
  400e00:	ff 25 da 42 20 00    	jmpq   *0x2042da(%rip)        # 6050e0 <getopt@GLIBC_2.2.5>
  400e06:	68 19 00 00 00       	pushq  $0x19
  400e0b:	e9 50 fe ff ff       	jmpq   400c60 <.plt>

0000000000400e10 <strtoul@plt>:
  400e10:	ff 25 d2 42 20 00    	jmpq   *0x2042d2(%rip)        # 6050e8 <strtoul@GLIBC_2.2.5>
  400e16:	68 1a 00 00 00       	pushq  $0x1a
  400e1b:	e9 40 fe ff ff       	jmpq   400c60 <.plt>

0000000000400e20 <gethostname@plt>:
  400e20:	ff 25 ca 42 20 00    	jmpq   *0x2042ca(%rip)        # 6050f0 <gethostname@GLIBC_2.2.5>
  400e26:	68 1b 00 00 00       	pushq  $0x1b
  400e2b:	e9 30 fe ff ff       	jmpq   400c60 <.plt>

0000000000400e30 <exit@plt>:
  400e30:	ff 25 c2 42 20 00    	jmpq   *0x2042c2(%rip)        # 6050f8 <exit@GLIBC_2.2.5>
  400e36:	68 1c 00 00 00       	pushq  $0x1c
  400e3b:	e9 20 fe ff ff       	jmpq   400c60 <.plt>

0000000000400e40 <connect@plt>:
  400e40:	ff 25 ba 42 20 00    	jmpq   *0x2042ba(%rip)        # 605100 <connect@GLIBC_2.2.5>
  400e46:	68 1d 00 00 00       	pushq  $0x1d
  400e4b:	e9 10 fe ff ff       	jmpq   400c60 <.plt>

0000000000400e50 <__fprintf_chk@plt>:
  400e50:	ff 25 b2 42 20 00    	jmpq   *0x2042b2(%rip)        # 605108 <__fprintf_chk@GLIBC_2.3.4>
  400e56:	68 1e 00 00 00       	pushq  $0x1e
  400e5b:	e9 00 fe ff ff       	jmpq   400c60 <.plt>

0000000000400e60 <__sprintf_chk@plt>:
  400e60:	ff 25 aa 42 20 00    	jmpq   *0x2042aa(%rip)        # 605110 <__sprintf_chk@GLIBC_2.3.4>
  400e66:	68 1f 00 00 00       	pushq  $0x1f
  400e6b:	e9 f0 fd ff ff       	jmpq   400c60 <.plt>

0000000000400e70 <socket@plt>:
  400e70:	ff 25 a2 42 20 00    	jmpq   *0x2042a2(%rip)        # 605118 <socket@GLIBC_2.2.5>
  400e76:	68 20 00 00 00       	pushq  $0x20
  400e7b:	e9 e0 fd ff ff       	jmpq   400c60 <.plt>

Disassembly of section .text:

0000000000400e80 <_start>:
  400e80:	31 ed                	xor    %ebp,%ebp
  400e82:	49 89 d1             	mov    %rdx,%r9
  400e85:	5e                   	pop    %rsi
  400e86:	48 89 e2             	mov    %rsp,%rdx
  400e89:	48 83 e4 f0          	and    $0xfffffffffffffff0,%rsp
  400e8d:	50                   	push   %rax
  400e8e:	54                   	push   %rsp
  400e8f:	49 c7 c0 c0 2e 40 00 	mov    $0x402ec0,%r8
  400e96:	48 c7 c1 50 2e 40 00 	mov    $0x402e50,%rcx
  400e9d:	48 c7 c7 73 11 40 00 	mov    $0x401173,%rdi
  400ea4:	ff 15 46 41 20 00    	callq  *0x204146(%rip)        # 604ff0 <__libc_start_main@GLIBC_2.2.5>
  400eaa:	f4                   	hlt    
  400eab:	0f 1f 44 00 00       	nopl   0x0(%rax,%rax,1)

0000000000400eb0 <_dl_relocate_static_pie>:
  400eb0:	f3 c3                	repz retq 
  400eb2:	66 2e 0f 1f 84 00 00 	nopw   %cs:0x0(%rax,%rax,1)
  400eb9:	00 00 00 
  400ebc:	0f 1f 40 00          	nopl   0x0(%rax)

0000000000400ec0 <deregister_tm_clones>:
  400ec0:	55                   	push   %rbp
  400ec1:	b8 90 54 60 00       	mov    $0x605490,%eax
  400ec6:	48 3d 90 54 60 00    	cmp    $0x605490,%rax
  400ecc:	48 89 e5             	mov    %rsp,%rbp
  400ecf:	74 17                	je     400ee8 <deregister_tm_clones+0x28>
  400ed1:	b8 00 00 00 00       	mov    $0x0,%eax
  400ed6:	48 85 c0             	test   %rax,%rax
  400ed9:	74 0d                	je     400ee8 <deregister_tm_clones+0x28>
  400edb:	5d                   	pop    %rbp
  400edc:	bf 90 54 60 00       	mov    $0x605490,%edi
  400ee1:	ff e0                	jmpq   *%rax
  400ee3:	0f 1f 44 00 00       	nopl   0x0(%rax,%rax,1)
  400ee8:	5d                   	pop    %rbp
  400ee9:	c3                   	retq   
  400eea:	66 0f 1f 44 00 00    	nopw   0x0(%rax,%rax,1)

0000000000400ef0 <register_tm_clones>:
  400ef0:	be 90 54 60 00       	mov    $0x605490,%esi
  400ef5:	55                   	push   %rbp
  400ef6:	48 81 ee 90 54 60 00 	sub    $0x605490,%rsi
  400efd:	48 89 e5             	mov    %rsp,%rbp
  400f00:	48 c1 fe 03          	sar    $0x3,%rsi
  400f04:	48 89 f0             	mov    %rsi,%rax
  400f07:	48 c1 e8 3f          	shr    $0x3f,%rax
  400f0b:	48 01 c6             	add    %rax,%rsi
  400f0e:	48 d1 fe             	sar    %rsi
  400f11:	74 15                	je     400f28 <register_tm_clones+0x38>
  400f13:	b8 00 00 00 00       	mov    $0x0,%eax
  400f18:	48 85 c0             	test   %rax,%rax
  400f1b:	74 0b                	je     400f28 <register_tm_clones+0x38>
  400f1d:	5d                   	pop    %rbp
  400f1e:	bf 90 54 60 00       	mov    $0x605490,%edi
  400f23:	ff e0                	jmpq   *%rax
  400f25:	0f 1f 00             	nopl   (%rax)
  400f28:	5d                   	pop    %rbp
  400f29:	c3                   	retq   
  400f2a:	66 0f 1f 44 00 00    	nopw   0x0(%rax,%rax,1)

0000000000400f30 <__do_global_dtors_aux>:
  400f30:	80 3d 91 45 20 00 00 	cmpb   $0x0,0x204591(%rip)        # 6054c8 <completed.7698>
  400f37:	75 17                	jne    400f50 <__do_global_dtors_aux+0x20>
  400f39:	55                   	push   %rbp
  400f3a:	48 89 e5             	mov    %rsp,%rbp
  400f3d:	e8 7e ff ff ff       	callq  400ec0 <deregister_tm_clones>
  400f42:	c6 05 7f 45 20 00 01 	movb   $0x1,0x20457f(%rip)        # 6054c8 <completed.7698>
  400f49:	5d                   	pop    %rbp
  400f4a:	c3                   	retq   
  400f4b:	0f 1f 44 00 00       	nopl   0x0(%rax,%rax,1)
  400f50:	f3 c3                	repz retq 
  400f52:	0f 1f 40 00          	nopl   0x0(%rax)
  400f56:	66 2e 0f 1f 84 00 00 	nopw   %cs:0x0(%rax,%rax,1)
  400f5d:	00 00 00 

0000000000400f60 <frame_dummy>:
  400f60:	55                   	push   %rbp
  400f61:	48 89 e5             	mov    %rsp,%rbp
  400f64:	5d                   	pop    %rbp
  400f65:	eb 89                	jmp    400ef0 <register_tm_clones>

0000000000400f67 <usage>:
  400f67:	48 83 ec 08          	sub    $0x8,%rsp
  400f6b:	48 89 fa             	mov    %rdi,%rdx
  400f6e:	83 3d 93 45 20 00 00 	cmpl   $0x0,0x204593(%rip)        # 605508 <is_checker>
  400f75:	74 46                	je     400fbd <usage+0x56>
  400f77:	be d8 2e 40 00       	mov    $0x402ed8,%esi
  400f7c:	bf 01 00 00 00       	mov    $0x1,%edi
  400f81:	b8 00 00 00 00       	mov    $0x0,%eax
  400f86:	e8 55 fe ff ff       	callq  400de0 <__printf_chk@plt>
  400f8b:	bf 10 2f 40 00       	mov    $0x402f10,%edi
  400f90:	e8 2b fd ff ff       	callq  400cc0 <puts@plt>
  400f95:	bf 88 30 40 00       	mov    $0x403088,%edi
  400f9a:	e8 21 fd ff ff       	callq  400cc0 <puts@plt>
  400f9f:	bf 38 2f 40 00       	mov    $0x402f38,%edi
  400fa4:	e8 17 fd ff ff       	callq  400cc0 <puts@plt>
  400fa9:	bf a2 30 40 00       	mov    $0x4030a2,%edi
  400fae:	e8 0d fd ff ff       	callq  400cc0 <puts@plt>
  400fb3:	bf 00 00 00 00       	mov    $0x0,%edi
  400fb8:	e8 73 fe ff ff       	callq  400e30 <exit@plt>
  400fbd:	be be 30 40 00       	mov    $0x4030be,%esi
  400fc2:	bf 01 00 00 00       	mov    $0x1,%edi
  400fc7:	b8 00 00 00 00       	mov    $0x0,%eax
  400fcc:	e8 0f fe ff ff       	callq  400de0 <__printf_chk@plt>
  400fd1:	bf 60 2f 40 00       	mov    $0x402f60,%edi
  400fd6:	e8 e5 fc ff ff       	callq  400cc0 <puts@plt>
  400fdb:	bf 88 2f 40 00       	mov    $0x402f88,%edi
  400fe0:	e8 db fc ff ff       	callq  400cc0 <puts@plt>
  400fe5:	bf dc 30 40 00       	mov    $0x4030dc,%edi
  400fea:	e8 d1 fc ff ff       	callq  400cc0 <puts@plt>
  400fef:	eb c2                	jmp    400fb3 <usage+0x4c>

0000000000400ff1 <initialize_target>:
  400ff1:	55                   	push   %rbp
  400ff2:	53                   	push   %rbx
  400ff3:	48 81 ec 18 21 00 00 	sub    $0x2118,%rsp
  400ffa:	89 f5                	mov    %esi,%ebp
  400ffc:	64 48 8b 04 25 28 00 	mov    %fs:0x28,%rax
  401003:	00 00 
  401005:	48 89 84 24 08 21 00 	mov    %rax,0x2108(%rsp)
  40100c:	00 
  40100d:	31 c0                	xor    %eax,%eax
  40100f:	89 3d e3 44 20 00    	mov    %edi,0x2044e3(%rip)        # 6054f8 <check_level>
  401015:	8b 3d 2d 41 20 00    	mov    0x20412d(%rip),%edi        # 605148 <target_id>
  40101b:	e8 08 1e 00 00       	callq  402e28 <gencookie>
  401020:	89 05 de 44 20 00    	mov    %eax,0x2044de(%rip)        # 605504 <cookie>
  401026:	89 c7                	mov    %eax,%edi
  401028:	e8 fb 1d 00 00       	callq  402e28 <gencookie>
  40102d:	89 05 cd 44 20 00    	mov    %eax,0x2044cd(%rip)        # 605500 <authkey>
  401033:	8b 05 0f 41 20 00    	mov    0x20410f(%rip),%eax        # 605148 <target_id>
  401039:	8d 78 01             	lea    0x1(%rax),%edi
  40103c:	e8 4f fc ff ff       	callq  400c90 <srandom@plt>
  401041:	e8 5a fd ff ff       	callq  400da0 <random@plt>
  401046:	89 c7                	mov    %eax,%edi
  401048:	e8 f2 02 00 00       	callq  40133f <scramble>
  40104d:	89 c3                	mov    %eax,%ebx
  40104f:	85 ed                	test   %ebp,%ebp
  401051:	75 54                	jne    4010a7 <initialize_target+0xb6>
  401053:	b8 00 00 00 00       	mov    $0x0,%eax
  401058:	01 d8                	add    %ebx,%eax
  40105a:	0f b7 c0             	movzwl %ax,%eax
  40105d:	8d 04 c5 00 01 00 00 	lea    0x100(,%rax,8),%eax
  401064:	89 c0                	mov    %eax,%eax
  401066:	48 89 05 13 44 20 00 	mov    %rax,0x204413(%rip)        # 605480 <buf_offset>
  40106d:	c6 05 b4 50 20 00 72 	movb   $0x72,0x2050b4(%rip)        # 606128 <target_prefix>
  401074:	83 3d 0d 44 20 00 00 	cmpl   $0x0,0x20440d(%rip)        # 605488 <notify>
  40107b:	74 09                	je     401086 <initialize_target+0x95>
  40107d:	83 3d 84 44 20 00 00 	cmpl   $0x0,0x204484(%rip)        # 605508 <is_checker>
  401084:	74 39                	je     4010bf <initialize_target+0xce>
  401086:	48 8b 84 24 08 21 00 	mov    0x2108(%rsp),%rax
  40108d:	00 
  40108e:	64 48 33 04 25 28 00 	xor    %fs:0x28,%rax
  401095:	00 00 
  401097:	0f 85 d1 00 00 00    	jne    40116e <initialize_target+0x17d>
  40109d:	48 81 c4 18 21 00 00 	add    $0x2118,%rsp
  4010a4:	5b                   	pop    %rbx
  4010a5:	5d                   	pop    %rbp
  4010a6:	c3                   	retq   
  4010a7:	bf 00 00 00 00       	mov    $0x0,%edi
  4010ac:	e8 df fc ff ff       	callq  400d90 <time@plt>
  4010b1:	89 c7                	mov    %eax,%edi
  4010b3:	e8 d8 fb ff ff       	callq  400c90 <srandom@plt>
  4010b8:	e8 e3 fc ff ff       	callq  400da0 <random@plt>
  4010bd:	eb 99                	jmp    401058 <initialize_target+0x67>
  4010bf:	be 00 01 00 00       	mov    $0x100,%esi
  4010c4:	48 89 e7             	mov    %rsp,%rdi
  4010c7:	e8 54 fd ff ff       	callq  400e20 <gethostname@plt>
  4010cc:	89 c5                	mov    %eax,%ebp
  4010ce:	85 c0                	test   %eax,%eax
  4010d0:	75 23                	jne    4010f5 <initialize_target+0x104>
  4010d2:	89 c3                	mov    %eax,%ebx
  4010d4:	48 63 c3             	movslq %ebx,%rax
  4010d7:	48 8b 3c c5 60 51 60 	mov    0x605160(,%rax,8),%rdi
  4010de:	00 
  4010df:	48 85 ff             	test   %rdi,%rdi
  4010e2:	74 2a                	je     40110e <initialize_target+0x11d>
  4010e4:	48 89 e6             	mov    %rsp,%rsi
  4010e7:	e8 84 fb ff ff       	callq  400c70 <strcasecmp@plt>
  4010ec:	85 c0                	test   %eax,%eax
  4010ee:	74 19                	je     401109 <initialize_target+0x118>
  4010f0:	83 c3 01             	add    $0x1,%ebx
  4010f3:	eb df                	jmp    4010d4 <initialize_target+0xe3>
  4010f5:	bf b8 2f 40 00       	mov    $0x402fb8,%edi
  4010fa:	e8 c1 fb ff ff       	callq  400cc0 <puts@plt>
  4010ff:	bf 08 00 00 00       	mov    $0x8,%edi
  401104:	e8 27 fd ff ff       	callq  400e30 <exit@plt>
  401109:	bd 01 00 00 00       	mov    $0x1,%ebp
  40110e:	85 ed                	test   %ebp,%ebp
  401110:	74 3b                	je     40114d <initialize_target+0x15c>
  401112:	48 8d bc 24 00 01 00 	lea    0x100(%rsp),%rdi
  401119:	00 
  40111a:	e8 5e 1a 00 00       	callq  402b7d <init_driver>
  40111f:	85 c0                	test   %eax,%eax
  401121:	0f 89 5f ff ff ff    	jns    401086 <initialize_target+0x95>
  401127:	48 8d 94 24 00 01 00 	lea    0x100(%rsp),%rdx
  40112e:	00 
  40112f:	be 30 30 40 00       	mov    $0x403030,%esi
  401134:	bf 01 00 00 00       	mov    $0x1,%edi
  401139:	b8 00 00 00 00       	mov    $0x0,%eax
  40113e:	e8 9d fc ff ff       	callq  400de0 <__printf_chk@plt>
  401143:	bf 08 00 00 00       	mov    $0x8,%edi
  401148:	e8 e3 fc ff ff       	callq  400e30 <exit@plt>
  40114d:	48 89 e2             	mov    %rsp,%rdx
  401150:	be f0 2f 40 00       	mov    $0x402ff0,%esi
  401155:	bf 01 00 00 00       	mov    $0x1,%edi
  40115a:	b8 00 00 00 00       	mov    $0x0,%eax
  40115f:	e8 7c fc ff ff       	callq  400de0 <__printf_chk@plt>
  401164:	bf 08 00 00 00       	mov    $0x8,%edi
  401169:	e8 c2 fc ff ff       	callq  400e30 <exit@plt>
  40116e:	e8 6d fb ff ff       	callq  400ce0 <__stack_chk_fail@plt>

0000000000401173 <main>:
  401173:	41 56                	push   %r14
  401175:	41 55                	push   %r13
  401177:	41 54                	push   %r12
  401179:	55                   	push   %rbp
  40117a:	53                   	push   %rbx
  40117b:	41 89 fc             	mov    %edi,%r12d
  40117e:	48 89 f3             	mov    %rsi,%rbx
  401181:	be ba 1e 40 00       	mov    $0x401eba,%esi
  401186:	bf 0b 00 00 00       	mov    $0xb,%edi
  40118b:	e8 b0 fb ff ff       	callq  400d40 <signal@plt>
  401190:	be 6c 1e 40 00       	mov    $0x401e6c,%esi
  401195:	bf 07 00 00 00       	mov    $0x7,%edi
  40119a:	e8 a1 fb ff ff       	callq  400d40 <signal@plt>
  40119f:	be 08 1f 40 00       	mov    $0x401f08,%esi
  4011a4:	bf 04 00 00 00       	mov    $0x4,%edi
  4011a9:	e8 92 fb ff ff       	callq  400d40 <signal@plt>
  4011ae:	83 3d 53 43 20 00 00 	cmpl   $0x0,0x204353(%rip)        # 605508 <is_checker>
  4011b5:	75 24                	jne    4011db <main+0x68>
  4011b7:	bd f5 30 40 00       	mov    $0x4030f5,%ebp
  4011bc:	48 8b 05 dd 42 20 00 	mov    0x2042dd(%rip),%rax        # 6054a0 <stdin@@GLIBC_2.2.5>
  4011c3:	48 89 05 26 43 20 00 	mov    %rax,0x204326(%rip)        # 6054f0 <infile>
  4011ca:	41 bd 00 00 00 00    	mov    $0x0,%r13d
  4011d0:	41 be 00 00 00 00    	mov    $0x0,%r14d
  4011d6:	e9 85 00 00 00       	jmpq   401260 <main+0xed>
  4011db:	be 56 1f 40 00       	mov    $0x401f56,%esi
  4011e0:	bf 0e 00 00 00       	mov    $0xe,%edi
  4011e5:	e8 56 fb ff ff       	callq  400d40 <signal@plt>
  4011ea:	bf 05 00 00 00       	mov    $0x5,%edi
  4011ef:	e8 1c fb ff ff       	callq  400d10 <alarm@plt>
  4011f4:	bd fa 30 40 00       	mov    $0x4030fa,%ebp
  4011f9:	eb c1                	jmp    4011bc <main+0x49>
  4011fb:	48 8b 3b             	mov    (%rbx),%rdi
  4011fe:	e8 64 fd ff ff       	callq  400f67 <usage>
  401203:	be c5 33 40 00       	mov    $0x4033c5,%esi
  401208:	48 8b 3d 99 42 20 00 	mov    0x204299(%rip),%rdi        # 6054a8 <optarg@@GLIBC_2.2.5>
  40120f:	e8 dc fb ff ff       	callq  400df0 <fopen@plt>
  401214:	48 89 05 d5 42 20 00 	mov    %rax,0x2042d5(%rip)        # 6054f0 <infile>
  40121b:	48 85 c0             	test   %rax,%rax
  40121e:	75 40                	jne    401260 <main+0xed>
  401220:	48 8b 0d 81 42 20 00 	mov    0x204281(%rip),%rcx        # 6054a8 <optarg@@GLIBC_2.2.5>
  401227:	ba 02 31 40 00       	mov    $0x403102,%edx
  40122c:	be 01 00 00 00       	mov    $0x1,%esi
  401231:	48 8b 3d 88 42 20 00 	mov    0x204288(%rip),%rdi        # 6054c0 <stderr@@GLIBC_2.2.5>
  401238:	e8 13 fc ff ff       	callq  400e50 <__fprintf_chk@plt>
  40123d:	b8 01 00 00 00       	mov    $0x1,%eax
  401242:	e9 cc 00 00 00       	jmpq   401313 <main+0x1a0>
  401247:	ba 10 00 00 00       	mov    $0x10,%edx
  40124c:	be 00 00 00 00       	mov    $0x0,%esi
  401251:	48 8b 3d 50 42 20 00 	mov    0x204250(%rip),%rdi        # 6054a8 <optarg@@GLIBC_2.2.5>
  401258:	e8 b3 fb ff ff       	callq  400e10 <strtoul@plt>
  40125d:	41 89 c6             	mov    %eax,%r14d
  401260:	48 89 ea             	mov    %rbp,%rdx
  401263:	48 89 de             	mov    %rbx,%rsi
  401266:	44 89 e7             	mov    %r12d,%edi
  401269:	e8 92 fb ff ff       	callq  400e00 <getopt@plt>
  40126e:	3c ff                	cmp    $0xff,%al
  401270:	74 57                	je     4012c9 <main+0x156>
  401272:	0f be d0             	movsbl %al,%edx
  401275:	83 e8 61             	sub    $0x61,%eax
  401278:	3c 10                	cmp    $0x10,%al
  40127a:	77 31                	ja     4012ad <main+0x13a>
  40127c:	0f b6 c0             	movzbl %al,%eax
  40127f:	ff 24 c5 40 31 40 00 	jmpq   *0x403140(,%rax,8)
  401286:	ba 0a 00 00 00       	mov    $0xa,%edx
  40128b:	be 00 00 00 00       	mov    $0x0,%esi
  401290:	48 8b 3d 11 42 20 00 	mov    0x204211(%rip),%rdi        # 6054a8 <optarg@@GLIBC_2.2.5>
  401297:	e8 d4 fa ff ff       	callq  400d70 <strtol@plt>
  40129c:	41 89 c5             	mov    %eax,%r13d
  40129f:	eb bf                	jmp    401260 <main+0xed>
  4012a1:	c7 05 dd 41 20 00 00 	movl   $0x0,0x2041dd(%rip)        # 605488 <notify>
  4012a8:	00 00 00 
  4012ab:	eb b3                	jmp    401260 <main+0xed>
  4012ad:	be 1f 31 40 00       	mov    $0x40311f,%esi
  4012b2:	bf 01 00 00 00       	mov    $0x1,%edi
  4012b7:	b8 00 00 00 00       	mov    $0x0,%eax
  4012bc:	e8 1f fb ff ff       	callq  400de0 <__printf_chk@plt>
  4012c1:	48 8b 3b             	mov    (%rbx),%rdi
  4012c4:	e8 9e fc ff ff       	callq  400f67 <usage>
  4012c9:	be 01 00 00 00       	mov    $0x1,%esi
  4012ce:	44 89 ef             	mov    %r13d,%edi
  4012d1:	e8 1b fd ff ff       	callq  400ff1 <initialize_target>
  4012d6:	83 3d 2b 42 20 00 00 	cmpl   $0x0,0x20422b(%rip)        # 605508 <is_checker>
  4012dd:	74 09                	je     4012e8 <main+0x175>
  4012df:	44 39 35 1a 42 20 00 	cmp    %r14d,0x20421a(%rip)        # 605500 <authkey>
  4012e6:	75 34                	jne    40131c <main+0x1a9>
  4012e8:	8b 15 16 42 20 00    	mov    0x204216(%rip),%edx        # 605504 <cookie>
  4012ee:	be 32 31 40 00       	mov    $0x403132,%esi
  4012f3:	bf 01 00 00 00       	mov    $0x1,%edi
  4012f8:	b8 00 00 00 00       	mov    $0x0,%eax
  4012fd:	e8 de fa ff ff       	callq  400de0 <__printf_chk@plt>
  401302:	48 8b 3d 77 41 20 00 	mov    0x204177(%rip),%rdi        # 605480 <buf_offset>
  401309:	e8 9b 0c 00 00       	callq  401fa9 <launch>
  40130e:	b8 00 00 00 00       	mov    $0x0,%eax
  401313:	5b                   	pop    %rbx
  401314:	5d                   	pop    %rbp
  401315:	41 5c                	pop    %r12
  401317:	41 5d                	pop    %r13
  401319:	41 5e                	pop    %r14
  40131b:	c3                   	retq   
  40131c:	44 89 f2             	mov    %r14d,%edx
  40131f:	be 58 30 40 00       	mov    $0x403058,%esi
  401324:	bf 01 00 00 00       	mov    $0x1,%edi
  401329:	b8 00 00 00 00       	mov    $0x0,%eax
  40132e:	e8 ad fa ff ff       	callq  400de0 <__printf_chk@plt>
  401333:	b8 00 00 00 00       	mov    $0x0,%eax
  401338:	e8 b8 07 00 00       	callq  401af5 <check_fail>
  40133d:	eb a9                	jmp    4012e8 <main+0x175>

000000000040133f <scramble>:
  40133f:	48 83 ec 38          	sub    $0x38,%rsp
  401343:	64 48 8b 04 25 28 00 	mov    %fs:0x28,%rax
  40134a:	00 00 
  40134c:	48 89 44 24 28       	mov    %rax,0x28(%rsp)
  401351:	31 c0                	xor    %eax,%eax
  401353:	eb 10                	jmp    401365 <scramble+0x26>
  401355:	69 d0 33 52 00 00    	imul   $0x5233,%eax,%edx
  40135b:	01 fa                	add    %edi,%edx
  40135d:	89 c1                	mov    %eax,%ecx
  40135f:	89 14 8c             	mov    %edx,(%rsp,%rcx,4)
  401362:	83 c0 01             	add    $0x1,%eax
  401365:	83 f8 09             	cmp    $0x9,%eax
  401368:	76 eb                	jbe    401355 <scramble+0x16>
  40136a:	8b 44 24 18          	mov    0x18(%rsp),%eax
  40136e:	69 c0 42 99 00 00    	imul   $0x9942,%eax,%eax
  401374:	89 44 24 18          	mov    %eax,0x18(%rsp)
  401378:	8b 44 24 1c          	mov    0x1c(%rsp),%eax
  40137c:	69 c0 f3 90 00 00    	imul   $0x90f3,%eax,%eax
  401382:	89 44 24 1c          	mov    %eax,0x1c(%rsp)
  401386:	8b 44 24 0c          	mov    0xc(%rsp),%eax
  40138a:	69 c0 99 1a 00 00    	imul   $0x1a99,%eax,%eax
  401390:	89 44 24 0c          	mov    %eax,0xc(%rsp)
  401394:	8b 44 24 14          	mov    0x14(%rsp),%eax
  401398:	69 c0 24 f9 00 00    	imul   $0xf924,%eax,%eax
  40139e:	89 44 24 14          	mov    %eax,0x14(%rsp)
  4013a2:	8b 44 24 10          	mov    0x10(%rsp),%eax
  4013a6:	69 c0 40 33 00 00    	imul   $0x3340,%eax,%eax
  4013ac:	89 44 24 10          	mov    %eax,0x10(%rsp)
  4013b0:	8b 44 24 10          	mov    0x10(%rsp),%eax
  4013b4:	69 c0 ba 8a 00 00    	imul   $0x8aba,%eax,%eax
  4013ba:	89 44 24 10          	mov    %eax,0x10(%rsp)
  4013be:	8b 44 24 10          	mov    0x10(%rsp),%eax
  4013c2:	69 c0 6b ba 00 00    	imul   $0xba6b,%eax,%eax
  4013c8:	89 44 24 10          	mov    %eax,0x10(%rsp)
  4013cc:	8b 44 24 04          	mov    0x4(%rsp),%eax
  4013d0:	69 c0 76 a1 00 00    	imul   $0xa176,%eax,%eax
  4013d6:	89 44 24 04          	mov    %eax,0x4(%rsp)
  4013da:	8b 44 24 24          	mov    0x24(%rsp),%eax
  4013de:	69 c0 e9 53 00 00    	imul   $0x53e9,%eax,%eax
  4013e4:	89 44 24 24          	mov    %eax,0x24(%rsp)
  4013e8:	8b 44 24 10          	mov    0x10(%rsp),%eax
  4013ec:	69 c0 65 12 00 00    	imul   $0x1265,%eax,%eax
  4013f2:	89 44 24 10          	mov    %eax,0x10(%rsp)
  4013f6:	8b 44 24 24          	mov    0x24(%rsp),%eax
  4013fa:	69 c0 60 36 00 00    	imul   $0x3660,%eax,%eax
  401400:	89 44 24 24          	mov    %eax,0x24(%rsp)
  401404:	8b 44 24 20          	mov    0x20(%rsp),%eax
  401408:	69 c0 45 81 00 00    	imul   $0x8145,%eax,%eax
  40140e:	89 44 24 20          	mov    %eax,0x20(%rsp)
  401412:	8b 44 24 08          	mov    0x8(%rsp),%eax
  401416:	69 c0 62 ba 00 00    	imul   $0xba62,%eax,%eax
  40141c:	89 44 24 08          	mov    %eax,0x8(%rsp)
  401420:	8b 04 24             	mov    (%rsp),%eax
  401423:	69 c0 60 d4 00 00    	imul   $0xd460,%eax,%eax
  401429:	89 04 24             	mov    %eax,(%rsp)
  40142c:	8b 44 24 0c          	mov    0xc(%rsp),%eax
  401430:	69 c0 0e 80 00 00    	imul   $0x800e,%eax,%eax
  401436:	89 44 24 0c          	mov    %eax,0xc(%rsp)
  40143a:	8b 44 24 18          	mov    0x18(%rsp),%eax
  40143e:	69 c0 d8 06 00 00    	imul   $0x6d8,%eax,%eax
  401444:	89 44 24 18          	mov    %eax,0x18(%rsp)
  401448:	8b 44 24 24          	mov    0x24(%rsp),%eax
  40144c:	69 c0 5b a6 00 00    	imul   $0xa65b,%eax,%eax
  401452:	89 44 24 24          	mov    %eax,0x24(%rsp)
  401456:	8b 44 24 10          	mov    0x10(%rsp),%eax
  40145a:	69 c0 6a dd 00 00    	imul   $0xdd6a,%eax,%eax
  401460:	89 44 24 10          	mov    %eax,0x10(%rsp)
  401464:	8b 44 24 08          	mov    0x8(%rsp),%eax
  401468:	69 c0 e7 6d 00 00    	imul   $0x6de7,%eax,%eax
  40146e:	89 44 24 08          	mov    %eax,0x8(%rsp)
  401472:	8b 44 24 24          	mov    0x24(%rsp),%eax
  401476:	69 c0 6d da 00 00    	imul   $0xda6d,%eax,%eax
  40147c:	89 44 24 24          	mov    %eax,0x24(%rsp)
  401480:	8b 44 24 14          	mov    0x14(%rsp),%eax
  401484:	69 c0 00 39 00 00    	imul   $0x3900,%eax,%eax
  40148a:	89 44 24 14          	mov    %eax,0x14(%rsp)
  40148e:	8b 44 24 04          	mov    0x4(%rsp),%eax
  401492:	69 c0 34 0c 00 00    	imul   $0xc34,%eax,%eax
  401498:	89 44 24 04          	mov    %eax,0x4(%rsp)
  40149c:	8b 44 24 20          	mov    0x20(%rsp),%eax
  4014a0:	69 c0 d6 b7 00 00    	imul   $0xb7d6,%eax,%eax
  4014a6:	89 44 24 20          	mov    %eax,0x20(%rsp)
  4014aa:	8b 44 24 0c          	mov    0xc(%rsp),%eax
  4014ae:	69 c0 d8 cd 00 00    	imul   $0xcdd8,%eax,%eax
  4014b4:	89 44 24 0c          	mov    %eax,0xc(%rsp)
  4014b8:	8b 44 24 24          	mov    0x24(%rsp),%eax
  4014bc:	69 c0 bf ab 00 00    	imul   $0xabbf,%eax,%eax
  4014c2:	89 44 24 24          	mov    %eax,0x24(%rsp)
  4014c6:	8b 44 24 1c          	mov    0x1c(%rsp),%eax
  4014ca:	69 c0 5b 77 00 00    	imul   $0x775b,%eax,%eax
  4014d0:	89 44 24 1c          	mov    %eax,0x1c(%rsp)
  4014d4:	8b 44 24 08          	mov    0x8(%rsp),%eax
  4014d8:	69 c0 75 67 00 00    	imul   $0x6775,%eax,%eax
  4014de:	89 44 24 08          	mov    %eax,0x8(%rsp)
  4014e2:	8b 44 24 14          	mov    0x14(%rsp),%eax
  4014e6:	69 c0 de ed 00 00    	imul   $0xedde,%eax,%eax
  4014ec:	89 44 24 14          	mov    %eax,0x14(%rsp)
  4014f0:	8b 44 24 18          	mov    0x18(%rsp),%eax
  4014f4:	69 c0 9a d8 00 00    	imul   $0xd89a,%eax,%eax
  4014fa:	89 44 24 18          	mov    %eax,0x18(%rsp)
  4014fe:	8b 44 24 1c          	mov    0x1c(%rsp),%eax
  401502:	69 c0 7c d6 00 00    	imul   $0xd67c,%eax,%eax
  401508:	89 44 24 1c          	mov    %eax,0x1c(%rsp)
  40150c:	8b 44 24 08          	mov    0x8(%rsp),%eax
  401510:	69 c0 7b 14 00 00    	imul   $0x147b,%eax,%eax
  401516:	89 44 24 08          	mov    %eax,0x8(%rsp)
  40151a:	8b 44 24 04          	mov    0x4(%rsp),%eax
  40151e:	69 c0 f9 71 00 00    	imul   $0x71f9,%eax,%eax
  401524:	89 44 24 04          	mov    %eax,0x4(%rsp)
  401528:	8b 44 24 24          	mov    0x24(%rsp),%eax
  40152c:	69 c0 1f 75 00 00    	imul   $0x751f,%eax,%eax
  401532:	89 44 24 24          	mov    %eax,0x24(%rsp)
  401536:	8b 44 24 18          	mov    0x18(%rsp),%eax
  40153a:	69 c0 cb 7b 00 00    	imul   $0x7bcb,%eax,%eax
  401540:	89 44 24 18          	mov    %eax,0x18(%rsp)
  401544:	8b 44 24 24          	mov    0x24(%rsp),%eax
  401548:	69 c0 f1 25 00 00    	imul   $0x25f1,%eax,%eax
  40154e:	89 44 24 24          	mov    %eax,0x24(%rsp)
  401552:	8b 04 24             	mov    (%rsp),%eax
  401555:	69 c0 2e 84 00 00    	imul   $0x842e,%eax,%eax
  40155b:	89 04 24             	mov    %eax,(%rsp)
  40155e:	8b 44 24 08          	mov    0x8(%rsp),%eax
  401562:	69 c0 60 bb 00 00    	imul   $0xbb60,%eax,%eax
  401568:	89 44 24 08          	mov    %eax,0x8(%rsp)
  40156c:	8b 44 24 20          	mov    0x20(%rsp),%eax
  401570:	69 c0 5d 52 00 00    	imul   $0x525d,%eax,%eax
  401576:	89 44 24 20          	mov    %eax,0x20(%rsp)
  40157a:	8b 44 24 18          	mov    0x18(%rsp),%eax
  40157e:	69 c0 0c 3e 00 00    	imul   $0x3e0c,%eax,%eax
  401584:	89 44 24 18          	mov    %eax,0x18(%rsp)
  401588:	8b 44 24 24          	mov    0x24(%rsp),%eax
  40158c:	69 c0 f5 7e 00 00    	imul   $0x7ef5,%eax,%eax
  401592:	89 44 24 24          	mov    %eax,0x24(%rsp)
  401596:	8b 44 24 08          	mov    0x8(%rsp),%eax
  40159a:	6b c0 73             	imul   $0x73,%eax,%eax
  40159d:	89 44 24 08          	mov    %eax,0x8(%rsp)
  4015a1:	8b 04 24             	mov    (%rsp),%eax
  4015a4:	69 c0 eb cb 00 00    	imul   $0xcbeb,%eax,%eax
  4015aa:	89 04 24             	mov    %eax,(%rsp)
  4015ad:	8b 44 24 14          	mov    0x14(%rsp),%eax
  4015b1:	69 c0 f1 ee 00 00    	imul   $0xeef1,%eax,%eax
  4015b7:	89 44 24 14          	mov    %eax,0x14(%rsp)
  4015bb:	8b 44 24 04          	mov    0x4(%rsp),%eax
  4015bf:	69 c0 c0 89 00 00    	imul   $0x89c0,%eax,%eax
  4015c5:	89 44 24 04          	mov    %eax,0x4(%rsp)
  4015c9:	8b 44 24 10          	mov    0x10(%rsp),%eax
  4015cd:	69 c0 07 7c 00 00    	imul   $0x7c07,%eax,%eax
  4015d3:	89 44 24 10          	mov    %eax,0x10(%rsp)
  4015d7:	8b 44 24 10          	mov    0x10(%rsp),%eax
  4015db:	69 c0 34 20 00 00    	imul   $0x2034,%eax,%eax
  4015e1:	89 44 24 10          	mov    %eax,0x10(%rsp)
  4015e5:	8b 44 24 18          	mov    0x18(%rsp),%eax
  4015e9:	69 c0 90 3d 00 00    	imul   $0x3d90,%eax,%eax
  4015ef:	89 44 24 18          	mov    %eax,0x18(%rsp)
  4015f3:	8b 44 24 24          	mov    0x24(%rsp),%eax
  4015f7:	69 c0 59 4b 00 00    	imul   $0x4b59,%eax,%eax
  4015fd:	89 44 24 24          	mov    %eax,0x24(%rsp)
  401601:	8b 44 24 14          	mov    0x14(%rsp),%eax
  401605:	69 c0 91 e1 00 00    	imul   $0xe191,%eax,%eax
  40160b:	89 44 24 14          	mov    %eax,0x14(%rsp)
  40160f:	8b 44 24 24          	mov    0x24(%rsp),%eax
  401613:	69 c0 b6 95 00 00    	imul   $0x95b6,%eax,%eax
  401619:	89 44 24 24          	mov    %eax,0x24(%rsp)
  40161d:	8b 44 24 10          	mov    0x10(%rsp),%eax
  401621:	69 c0 5e 1d 00 00    	imul   $0x1d5e,%eax,%eax
  401627:	89 44 24 10          	mov    %eax,0x10(%rsp)
  40162b:	8b 44 24 08          	mov    0x8(%rsp),%eax
  40162f:	69 c0 75 66 00 00    	imul   $0x6675,%eax,%eax
  401635:	89 44 24 08          	mov    %eax,0x8(%rsp)
  401639:	8b 44 24 10          	mov    0x10(%rsp),%eax
  40163d:	69 c0 46 aa 00 00    	imul   $0xaa46,%eax,%eax
  401643:	89 44 24 10          	mov    %eax,0x10(%rsp)
  401647:	8b 44 24 20          	mov    0x20(%rsp),%eax
  40164b:	69 c0 f5 4b 00 00    	imul   $0x4bf5,%eax,%eax
  401651:	89 44 24 20          	mov    %eax,0x20(%rsp)
  401655:	8b 44 24 18          	mov    0x18(%rsp),%eax
  401659:	69 c0 08 d9 00 00    	imul   $0xd908,%eax,%eax
  40165f:	89 44 24 18          	mov    %eax,0x18(%rsp)
  401663:	8b 44 24 08          	mov    0x8(%rsp),%eax
  401667:	69 c0 1d d2 00 00    	imul   $0xd21d,%eax,%eax
  40166d:	89 44 24 08          	mov    %eax,0x8(%rsp)
  401671:	8b 44 24 18          	mov    0x18(%rsp),%eax
  401675:	69 c0 3b c1 00 00    	imul   $0xc13b,%eax,%eax
  40167b:	89 44 24 18          	mov    %eax,0x18(%rsp)
  40167f:	8b 44 24 18          	mov    0x18(%rsp),%eax
  401683:	69 c0 64 41 00 00    	imul   $0x4164,%eax,%eax
  401689:	89 44 24 18          	mov    %eax,0x18(%rsp)
  40168d:	8b 04 24             	mov    (%rsp),%eax
  401690:	69 c0 d1 57 00 00    	imul   $0x57d1,%eax,%eax
  401696:	89 04 24             	mov    %eax,(%rsp)
  401699:	8b 44 24 10          	mov    0x10(%rsp),%eax
  40169d:	69 c0 b7 77 00 00    	imul   $0x77b7,%eax,%eax
  4016a3:	89 44 24 10          	mov    %eax,0x10(%rsp)
  4016a7:	8b 04 24             	mov    (%rsp),%eax
  4016aa:	69 c0 60 2b 00 00    	imul   $0x2b60,%eax,%eax
  4016b0:	89 04 24             	mov    %eax,(%rsp)
  4016b3:	8b 44 24 10          	mov    0x10(%rsp),%eax
  4016b7:	69 c0 5b 64 00 00    	imul   $0x645b,%eax,%eax
  4016bd:	89 44 24 10          	mov    %eax,0x10(%rsp)
  4016c1:	8b 44 24 20          	mov    0x20(%rsp),%eax
  4016c5:	69 c0 1a 2a 00 00    	imul   $0x2a1a,%eax,%eax
  4016cb:	89 44 24 20          	mov    %eax,0x20(%rsp)
  4016cf:	8b 44 24 0c          	mov    0xc(%rsp),%eax
  4016d3:	69 c0 a0 1b 00 00    	imul   $0x1ba0,%eax,%eax
  4016d9:	89 44 24 0c          	mov    %eax,0xc(%rsp)
  4016dd:	8b 44 24 08          	mov    0x8(%rsp),%eax
  4016e1:	69 c0 d9 76 00 00    	imul   $0x76d9,%eax,%eax
  4016e7:	89 44 24 08          	mov    %eax,0x8(%rsp)
  4016eb:	8b 44 24 0c          	mov    0xc(%rsp),%eax
  4016ef:	69 c0 2e 13 00 00    	imul   $0x132e,%eax,%eax
  4016f5:	89 44 24 0c          	mov    %eax,0xc(%rsp)
  4016f9:	8b 44 24 14          	mov    0x14(%rsp),%eax
  4016fd:	69 c0 3a cb 00 00    	imul   $0xcb3a,%eax,%eax
  401703:	89 44 24 14          	mov    %eax,0x14(%rsp)
  401707:	8b 44 24 10          	mov    0x10(%rsp),%eax
  40170b:	69 c0 f6 6c 00 00    	imul   $0x6cf6,%eax,%eax
  401711:	89 44 24 10          	mov    %eax,0x10(%rsp)
  401715:	8b 44 24 04          	mov    0x4(%rsp),%eax
  401719:	69 c0 76 32 00 00    	imul   $0x3276,%eax,%eax
  40171f:	89 44 24 04          	mov    %eax,0x4(%rsp)
  401723:	8b 44 24 10          	mov    0x10(%rsp),%eax
  401727:	69 c0 d2 5d 00 00    	imul   $0x5dd2,%eax,%eax
  40172d:	89 44 24 10          	mov    %eax,0x10(%rsp)
  401731:	8b 44 24 24          	mov    0x24(%rsp),%eax
  401735:	69 c0 d5 83 00 00    	imul   $0x83d5,%eax,%eax
  40173b:	89 44 24 24          	mov    %eax,0x24(%rsp)
  40173f:	8b 04 24             	mov    (%rsp),%eax
  401742:	69 c0 fa e4 00 00    	imul   $0xe4fa,%eax,%eax
  401748:	89 04 24             	mov    %eax,(%rsp)
  40174b:	ba 00 00 00 00       	mov    $0x0,%edx
  401750:	b8 00 00 00 00       	mov    $0x0,%eax
  401755:	eb 0a                	jmp    401761 <scramble+0x422>
  401757:	89 d1                	mov    %edx,%ecx
  401759:	8b 0c 8c             	mov    (%rsp,%rcx,4),%ecx
  40175c:	01 c8                	add    %ecx,%eax
  40175e:	83 c2 01             	add    $0x1,%edx
  401761:	83 fa 09             	cmp    $0x9,%edx
  401764:	76 f1                	jbe    401757 <scramble+0x418>
  401766:	48 8b 74 24 28       	mov    0x28(%rsp),%rsi
  40176b:	64 48 33 34 25 28 00 	xor    %fs:0x28,%rsi
  401772:	00 00 
  401774:	75 05                	jne    40177b <scramble+0x43c>
  401776:	48 83 c4 38          	add    $0x38,%rsp
  40177a:	c3                   	retq   
  40177b:	e8 60 f5 ff ff       	callq  400ce0 <__stack_chk_fail@plt>

0000000000401780 <getbuf>:
  401780:	48 83 ec 18          	sub    $0x18,%rsp
  401784:	48 89 e7             	mov    %rsp,%rdi
  401787:	e8 9e 03 00 00       	callq  401b2a <Gets>
  40178c:	b8 01 00 00 00       	mov    $0x1,%eax
  401791:	48 83 c4 18          	add    $0x18,%rsp
  401795:	c3                   	retq   

0000000000401796 <touch1>:
  401796:	48 83 ec 08          	sub    $0x8,%rsp
  40179a:	c7 05 58 3d 20 00 01 	movl   $0x1,0x203d58(%rip)        # 6054fc <vlevel>
  4017a1:	00 00 00 
  4017a4:	bf 1a 32 40 00       	mov    $0x40321a,%edi
  4017a9:	e8 12 f5 ff ff       	callq  400cc0 <puts@plt>
  4017ae:	bf 01 00 00 00       	mov    $0x1,%edi
  4017b3:	e8 c7 05 00 00       	callq  401d7f <validate>
  4017b8:	bf 00 00 00 00       	mov    $0x0,%edi
  4017bd:	e8 6e f6 ff ff       	callq  400e30 <exit@plt>

00000000004017c2 <touch2>:
  4017c2:	48 83 ec 08          	sub    $0x8,%rsp
  4017c6:	89 fa                	mov    %edi,%edx
  4017c8:	c7 05 2a 3d 20 00 02 	movl   $0x2,0x203d2a(%rip)        # 6054fc <vlevel>
  4017cf:	00 00 00 
  4017d2:	39 3d 2c 3d 20 00    	cmp    %edi,0x203d2c(%rip)        # 605504 <cookie>
  4017d8:	74 28                	je     401802 <touch2+0x40>
  4017da:	be 68 32 40 00       	mov    $0x403268,%esi
  4017df:	bf 01 00 00 00       	mov    $0x1,%edi
  4017e4:	b8 00 00 00 00       	mov    $0x0,%eax
  4017e9:	e8 f2 f5 ff ff       	callq  400de0 <__printf_chk@plt>
  4017ee:	bf 02 00 00 00       	mov    $0x2,%edi
  4017f3:	e8 4c 06 00 00       	callq  401e44 <fail>
  4017f8:	bf 00 00 00 00       	mov    $0x0,%edi
  4017fd:	e8 2e f6 ff ff       	callq  400e30 <exit@plt>
  401802:	be 40 32 40 00       	mov    $0x403240,%esi
  401807:	bf 01 00 00 00       	mov    $0x1,%edi
  40180c:	b8 00 00 00 00       	mov    $0x0,%eax
  401811:	e8 ca f5 ff ff       	callq  400de0 <__printf_chk@plt>
  401816:	bf 02 00 00 00       	mov    $0x2,%edi
  40181b:	e8 5f 05 00 00       	callq  401d7f <validate>
  401820:	eb d6                	jmp    4017f8 <touch2+0x36>

0000000000401822 <hexmatch>:
  401822:	41 54                	push   %r12
  401824:	55                   	push   %rbp
  401825:	53                   	push   %rbx
  401826:	48 83 c4 80          	add    $0xffffffffffffff80,%rsp
  40182a:	89 fd                	mov    %edi,%ebp
  40182c:	48 89 f3             	mov    %rsi,%rbx
  40182f:	64 48 8b 04 25 28 00 	mov    %fs:0x28,%rax
  401836:	00 00 
  401838:	48 89 44 24 78       	mov    %rax,0x78(%rsp)
  40183d:	31 c0                	xor    %eax,%eax
  40183f:	e8 5c f5 ff ff       	callq  400da0 <random@plt>
  401844:	48 89 c1             	mov    %rax,%rcx
  401847:	48 ba 0b d7 a3 70 3d 	movabs $0xa3d70a3d70a3d70b,%rdx
  40184e:	0a d7 a3 
  401851:	48 f7 ea             	imul   %rdx
  401854:	48 01 ca             	add    %rcx,%rdx
  401857:	48 c1 fa 06          	sar    $0x6,%rdx
  40185b:	48 89 c8             	mov    %rcx,%rax
  40185e:	48 c1 f8 3f          	sar    $0x3f,%rax
  401862:	48 29 c2             	sub    %rax,%rdx
  401865:	48 8d 04 92          	lea    (%rdx,%rdx,4),%rax
  401869:	48 8d 14 80          	lea    (%rax,%rax,4),%rdx
  40186d:	48 8d 04 95 00 00 00 	lea    0x0(,%rdx,4),%rax
  401874:	00 
  401875:	48 29 c1             	sub    %rax,%rcx
  401878:	4c 8d 24 0c          	lea    (%rsp,%rcx,1),%r12
  40187c:	41 89 e8             	mov    %ebp,%r8d
  40187f:	b9 37 32 40 00       	mov    $0x403237,%ecx
  401884:	48 c7 c2 ff ff ff ff 	mov    $0xffffffffffffffff,%rdx
  40188b:	be 01 00 00 00       	mov    $0x1,%esi
  401890:	4c 89 e7             	mov    %r12,%rdi
  401893:	b8 00 00 00 00       	mov    $0x0,%eax
  401898:	e8 c3 f5 ff ff       	callq  400e60 <__sprintf_chk@plt>
  40189d:	ba 09 00 00 00       	mov    $0x9,%edx
  4018a2:	4c 89 e6             	mov    %r12,%rsi
  4018a5:	48 89 df             	mov    %rbx,%rdi
  4018a8:	e8 f3 f3 ff ff       	callq  400ca0 <strncmp@plt>
  4018ad:	85 c0                	test   %eax,%eax
  4018af:	0f 94 c0             	sete   %al
  4018b2:	48 8b 5c 24 78       	mov    0x78(%rsp),%rbx
  4018b7:	64 48 33 1c 25 28 00 	xor    %fs:0x28,%rbx
  4018be:	00 00 
  4018c0:	75 0c                	jne    4018ce <hexmatch+0xac>
  4018c2:	0f b6 c0             	movzbl %al,%eax
  4018c5:	48 83 ec 80          	sub    $0xffffffffffffff80,%rsp
  4018c9:	5b                   	pop    %rbx
  4018ca:	5d                   	pop    %rbp
  4018cb:	41 5c                	pop    %r12
  4018cd:	c3                   	retq   
  4018ce:	e8 0d f4 ff ff       	callq  400ce0 <__stack_chk_fail@plt>

00000000004018d3 <touch3>:
  4018d3:	53                   	push   %rbx
  4018d4:	48 89 fb             	mov    %rdi,%rbx
  4018d7:	c7 05 1b 3c 20 00 03 	movl   $0x3,0x203c1b(%rip)        # 6054fc <vlevel>
  4018de:	00 00 00 
  4018e1:	48 89 fe             	mov    %rdi,%rsi
  4018e4:	8b 3d 1a 3c 20 00    	mov    0x203c1a(%rip),%edi        # 605504 <cookie>
  4018ea:	e8 33 ff ff ff       	callq  401822 <hexmatch>
  4018ef:	85 c0                	test   %eax,%eax
  4018f1:	74 2b                	je     40191e <touch3+0x4b>
  4018f3:	48 89 da             	mov    %rbx,%rdx
  4018f6:	be 90 32 40 00       	mov    $0x403290,%esi
  4018fb:	bf 01 00 00 00       	mov    $0x1,%edi
  401900:	b8 00 00 00 00       	mov    $0x0,%eax
  401905:	e8 d6 f4 ff ff       	callq  400de0 <__printf_chk@plt>
  40190a:	bf 03 00 00 00       	mov    $0x3,%edi
  40190f:	e8 6b 04 00 00       	callq  401d7f <validate>
  401914:	bf 00 00 00 00       	mov    $0x0,%edi
  401919:	e8 12 f5 ff ff       	callq  400e30 <exit@plt>
  40191e:	48 89 da             	mov    %rbx,%rdx
  401921:	be b8 32 40 00       	mov    $0x4032b8,%esi
  401926:	bf 01 00 00 00       	mov    $0x1,%edi
  40192b:	b8 00 00 00 00       	mov    $0x0,%eax
  401930:	e8 ab f4 ff ff       	callq  400de0 <__printf_chk@plt>
  401935:	bf 03 00 00 00       	mov    $0x3,%edi
  40193a:	e8 05 05 00 00       	callq  401e44 <fail>
  40193f:	eb d3                	jmp    401914 <touch3+0x41>

0000000000401941 <test>:
  401941:	48 83 ec 08          	sub    $0x8,%rsp
  401945:	b8 00 00 00 00       	mov    $0x0,%eax
  40194a:	e8 31 fe ff ff       	callq  401780 <getbuf>
  40194f:	89 c2                	mov    %eax,%edx
  401951:	be e0 32 40 00       	mov    $0x4032e0,%esi
  401956:	bf 01 00 00 00       	mov    $0x1,%edi
  40195b:	b8 00 00 00 00       	mov    $0x0,%eax
  401960:	e8 7b f4 ff ff       	callq  400de0 <__printf_chk@plt>
  401965:	48 83 c4 08          	add    $0x8,%rsp
  401969:	c3                   	retq   

000000000040196a <start_farm>:
  40196a:	b8 01 00 00 00       	mov    $0x1,%eax
  40196f:	c3                   	retq   

0000000000401970 <getval_168>:
  401970:	b8 48 89 c7 94       	mov    $0x94c78948,%eax
  401975:	c3                   	retq   

0000000000401976 <getval_448>:
  401976:	b8 7e 58 89 c7       	mov    $0xc789587e,%eax
  40197b:	c3                   	retq   

000000000040197c <getval_387>:
  40197c:	b8 48 89 c7 c3       	mov    $0xc3c78948,%eax
  401981:	c3                   	retq   

0000000000401982 <getval_247>:
  401982:	b8 18 90 90 90       	mov    $0x90909018,%eax
  401987:	c3                   	retq   

0000000000401988 <addval_452>:
  401988:	8d 87 48 89 c7 c3    	lea    -0x3c3876b8(%rdi),%eax
  40198e:	c3                   	retq   

000000000040198f <setval_382>:
  40198f:	c7 07 7c 51 58 c3    	movl   $0xc358517c,(%rdi)
  401995:	c3                   	retq   

0000000000401996 <setval_489>:
  401996:	c7 07 11 58 c1 27    	movl   $0x27c15811,(%rdi)
  40199c:	c3                   	retq   

000000000040199d <getval_137>:
  40199d:	b8 58 90 c3 f0       	mov    $0xf0c39058,%eax
  4019a2:	c3                   	retq   

00000000004019a3 <mid_farm>:
  4019a3:	b8 01 00 00 00       	mov    $0x1,%eax
  4019a8:	c3                   	retq   

00000000004019a9 <add_xy>:
  4019a9:	48 8d 04 37          	lea    (%rdi,%rsi,1),%rax
  4019ad:	c3                   	retq   

00000000004019ae <addval_468>:
  4019ae:	8d 87 89 c1 08 d2    	lea    -0x2df73e77(%rdi),%eax
  4019b4:	c3                   	retq   

00000000004019b5 <getval_214>:
  4019b5:	b8 89 ca 92 90       	mov    $0x9092ca89,%eax
  4019ba:	c3                   	retq   

00000000004019bb <addval_125>:
  4019bb:	8d 87 09 d6 38 c9    	lea    -0x36c729f7(%rdi),%eax
  4019c1:	c3                   	retq   

00000000004019c2 <setval_163>:
  4019c2:	c7 07 99 c1 38 c0    	movl   $0xc038c199,(%rdi)
  4019c8:	c3                   	retq   

00000000004019c9 <setval_261>:
  4019c9:	c7 07 89 ca 38 db    	movl   $0xdb38ca89,(%rdi)
  4019cf:	c3                   	retq   

00000000004019d0 <setval_243>:
  4019d0:	c7 07 48 89 e0 c3    	movl   $0xc3e08948,(%rdi)
  4019d6:	c3                   	retq   

00000000004019d7 <setval_140>:
  4019d7:	c7 07 ea 68 89 e0    	movl   $0xe08968ea,(%rdi)
  4019dd:	c3                   	retq   

00000000004019de <addval_191>:
  4019de:	8d 87 48 89 e0 c3    	lea    -0x3c1f76b8(%rdi),%eax
  4019e4:	c3                   	retq   

00000000004019e5 <addval_257>:
  4019e5:	8d 87 89 d6 18 d2    	lea    -0x2de72977(%rdi),%eax
  4019eb:	c3                   	retq   

00000000004019ec <addval_492>:
  4019ec:	8d 87 88 d6 84 d2    	lea    -0x2d7b2978(%rdi),%eax
  4019f2:	c3                   	retq   

00000000004019f3 <setval_156>:
  4019f3:	c7 07 89 d6 08 c9    	movl   $0xc908d689,(%rdi)
  4019f9:	c3                   	retq   

00000000004019fa <getval_399>:
  4019fa:	b8 48 09 e0 90       	mov    $0x90e00948,%eax
  4019ff:	c3                   	retq   

0000000000401a00 <setval_412>:
  401a00:	c7 07 48 89 e0 c7    	movl   $0xc7e08948,(%rdi)
  401a06:	c3                   	retq   

0000000000401a07 <addval_290>:
  401a07:	8d 87 89 ca 94 db    	lea    -0x246b3577(%rdi),%eax
  401a0d:	c3                   	retq   

0000000000401a0e <getval_270>:
  401a0e:	b8 58 cc 8b c1       	mov    $0xc18bcc58,%eax
  401a13:	c3                   	retq   

0000000000401a14 <getval_139>:
  401a14:	b8 c9 c1 84 c9       	mov    $0xc984c1c9,%eax
  401a19:	c3                   	retq   

0000000000401a1a <getval_164>:
  401a1a:	b8 48 89 e0 c1       	mov    $0xc1e08948,%eax
  401a1f:	c3                   	retq   

0000000000401a20 <setval_459>:
  401a20:	c7 07 8b d6 90 c3    	movl   $0xc390d68b,(%rdi)
  401a26:	c3                   	retq   

0000000000401a27 <addval_430>:
  401a27:	8d 87 89 d6 48 c0    	lea    -0x3fb72977(%rdi),%eax
  401a2d:	c3                   	retq   

0000000000401a2e <addval_334>:
  401a2e:	8d 87 c9 c1 90 c3    	lea    -0x3c6f3e37(%rdi),%eax
  401a34:	c3                   	retq   

0000000000401a35 <setval_221>:
  401a35:	c7 07 89 ca c4 d2    	movl   $0xd2c4ca89,(%rdi)
  401a3b:	c3                   	retq   

0000000000401a3c <getval_252>:
  401a3c:	b8 89 ca 20 d2       	mov    $0xd220ca89,%eax
  401a41:	c3                   	retq   

0000000000401a42 <getval_474>:
  401a42:	b8 89 d6 84 c0       	mov    $0xc084d689,%eax
  401a47:	c3                   	retq   

0000000000401a48 <setval_238>:
  401a48:	c7 07 8b ca 38 d2    	movl   $0xd238ca8b,(%rdi)
  401a4e:	c3                   	retq   

0000000000401a4f <getval_241>:
  401a4f:	b8 89 d6 94 c0       	mov    $0xc094d689,%eax
  401a54:	c3                   	retq   

0000000000401a55 <addval_376>:
  401a55:	8d 87 48 89 e0 91    	lea    -0x6e1f76b8(%rdi),%eax
  401a5b:	c3                   	retq   

0000000000401a5c <setval_145>:
  401a5c:	c7 07 88 c1 08 db    	movl   $0xdb08c188,(%rdi)
  401a62:	c3                   	retq   

0000000000401a63 <addval_319>:
  401a63:	8d 87 c9 ca 08 d2    	lea    -0x2df73537(%rdi),%eax
  401a69:	c3                   	retq   

0000000000401a6a <setval_287>:
  401a6a:	c7 07 c2 48 09 e0    	movl   $0xe00948c2,(%rdi)
  401a70:	c3                   	retq   

0000000000401a71 <getval_380>:
  401a71:	b8 95 09 c1 90       	mov    $0x90c10995,%eax
  401a76:	c3                   	retq   

0000000000401a77 <addval_421>:
  401a77:	8d 87 70 09 ca 90    	lea    -0x6f35f690(%rdi),%eax
  401a7d:	c3                   	retq   

0000000000401a7e <getval_343>:
  401a7e:	b8 89 c1 90 90       	mov    $0x9090c189,%eax
  401a83:	c3                   	retq   

0000000000401a84 <end_farm>:
  401a84:	b8 01 00 00 00       	mov    $0x1,%eax
  401a89:	c3                   	retq   

0000000000401a8a <save_char>:
  401a8a:	8b 05 94 46 20 00    	mov    0x204694(%rip),%eax        # 606124 <gets_cnt>
  401a90:	3d ff 03 00 00       	cmp    $0x3ff,%eax
  401a95:	7f 49                	jg     401ae0 <save_char+0x56>
  401a97:	89 f9                	mov    %edi,%ecx
  401a99:	c0 e9 04             	shr    $0x4,%cl
  401a9c:	8d 14 40             	lea    (%rax,%rax,2),%edx
  401a9f:	83 e1 0f             	and    $0xf,%ecx
  401aa2:	0f b6 b1 00 36 40 00 	movzbl 0x403600(%rcx),%esi
  401aa9:	48 63 ca             	movslq %edx,%rcx
  401aac:	40 88 b1 20 55 60 00 	mov    %sil,0x605520(%rcx)
  401ab3:	8d 4a 01             	lea    0x1(%rdx),%ecx
  401ab6:	83 e7 0f             	and    $0xf,%edi
  401ab9:	0f b6 b7 00 36 40 00 	movzbl 0x403600(%rdi),%esi
  401ac0:	48 63 c9             	movslq %ecx,%rcx
  401ac3:	40 88 b1 20 55 60 00 	mov    %sil,0x605520(%rcx)
  401aca:	83 c2 02             	add    $0x2,%edx
  401acd:	48 63 d2             	movslq %edx,%rdx
  401ad0:	c6 82 20 55 60 00 20 	movb   $0x20,0x605520(%rdx)
  401ad7:	83 c0 01             	add    $0x1,%eax
  401ada:	89 05 44 46 20 00    	mov    %eax,0x204644(%rip)        # 606124 <gets_cnt>
  401ae0:	f3 c3                	repz retq 

0000000000401ae2 <save_term>:
  401ae2:	8b 05 3c 46 20 00    	mov    0x20463c(%rip),%eax        # 606124 <gets_cnt>
  401ae8:	8d 04 40             	lea    (%rax,%rax,2),%eax
  401aeb:	48 98                	cltq   
  401aed:	c6 80 20 55 60 00 00 	movb   $0x0,0x605520(%rax)
  401af4:	c3                   	retq   

0000000000401af5 <check_fail>:
  401af5:	48 83 ec 08          	sub    $0x8,%rsp
  401af9:	0f be 15 28 46 20 00 	movsbl 0x204628(%rip),%edx        # 606128 <target_prefix>
  401b00:	41 b8 20 55 60 00    	mov    $0x605520,%r8d
  401b06:	8b 0d ec 39 20 00    	mov    0x2039ec(%rip),%ecx        # 6054f8 <check_level>
  401b0c:	be 03 33 40 00       	mov    $0x403303,%esi
  401b11:	bf 01 00 00 00       	mov    $0x1,%edi
  401b16:	b8 00 00 00 00       	mov    $0x0,%eax
  401b1b:	e8 c0 f2 ff ff       	callq  400de0 <__printf_chk@plt>
  401b20:	bf 01 00 00 00       	mov    $0x1,%edi
  401b25:	e8 06 f3 ff ff       	callq  400e30 <exit@plt>

0000000000401b2a <Gets>:
  401b2a:	41 54                	push   %r12
  401b2c:	55                   	push   %rbp
  401b2d:	53                   	push   %rbx
  401b2e:	49 89 fc             	mov    %rdi,%r12
  401b31:	c7 05 e9 45 20 00 00 	movl   $0x0,0x2045e9(%rip)        # 606124 <gets_cnt>
  401b38:	00 00 00 
  401b3b:	48 89 fb             	mov    %rdi,%rbx
  401b3e:	eb 11                	jmp    401b51 <Gets+0x27>
  401b40:	48 8d 6b 01          	lea    0x1(%rbx),%rbp
  401b44:	88 03                	mov    %al,(%rbx)
  401b46:	0f b6 f8             	movzbl %al,%edi
  401b49:	e8 3c ff ff ff       	callq  401a8a <save_char>
  401b4e:	48 89 eb             	mov    %rbp,%rbx
  401b51:	48 8b 3d 98 39 20 00 	mov    0x203998(%rip),%rdi        # 6054f0 <infile>
  401b58:	e8 53 f2 ff ff       	callq  400db0 <_IO_getc@plt>
  401b5d:	83 f8 ff             	cmp    $0xffffffff,%eax
  401b60:	74 05                	je     401b67 <Gets+0x3d>
  401b62:	83 f8 0a             	cmp    $0xa,%eax
  401b65:	75 d9                	jne    401b40 <Gets+0x16>
  401b67:	c6 03 00             	movb   $0x0,(%rbx)
  401b6a:	b8 00 00 00 00       	mov    $0x0,%eax
  401b6f:	e8 6e ff ff ff       	callq  401ae2 <save_term>
  401b74:	4c 89 e0             	mov    %r12,%rax
  401b77:	5b                   	pop    %rbx
  401b78:	5d                   	pop    %rbp
  401b79:	41 5c                	pop    %r12
  401b7b:	c3                   	retq   

0000000000401b7c <notify_server>:
  401b7c:	55                   	push   %rbp
  401b7d:	53                   	push   %rbx
  401b7e:	48 81 ec 18 40 00 00 	sub    $0x4018,%rsp
  401b85:	64 48 8b 04 25 28 00 	mov    %fs:0x28,%rax
  401b8c:	00 00 
  401b8e:	48 89 84 24 08 40 00 	mov    %rax,0x4008(%rsp)
  401b95:	00 
  401b96:	31 c0                	xor    %eax,%eax
  401b98:	83 3d 69 39 20 00 00 	cmpl   $0x0,0x203969(%rip)        # 605508 <is_checker>
  401b9f:	0f 85 c9 00 00 00    	jne    401c6e <notify_server+0xf2>
  401ba5:	89 fb                	mov    %edi,%ebx
  401ba7:	8b 05 77 45 20 00    	mov    0x204577(%rip),%eax        # 606124 <gets_cnt>
  401bad:	83 c0 64             	add    $0x64,%eax
  401bb0:	3d 00 20 00 00       	cmp    $0x2000,%eax
  401bb5:	0f 8f d4 00 00 00    	jg     401c8f <notify_server+0x113>
  401bbb:	0f be 05 66 45 20 00 	movsbl 0x204566(%rip),%eax        # 606128 <target_prefix>
  401bc2:	83 3d bf 38 20 00 00 	cmpl   $0x0,0x2038bf(%rip)        # 605488 <notify>
  401bc9:	0f 84 de 00 00 00    	je     401cad <notify_server+0x131>
  401bcf:	8b 15 2b 39 20 00    	mov    0x20392b(%rip),%edx        # 605500 <authkey>
  401bd5:	85 db                	test   %ebx,%ebx
  401bd7:	0f 84 da 00 00 00    	je     401cb7 <notify_server+0x13b>
  401bdd:	bd 19 33 40 00       	mov    $0x403319,%ebp
  401be2:	68 20 55 60 00       	pushq  $0x605520
  401be7:	56                   	push   %rsi
  401be8:	50                   	push   %rax
  401be9:	52                   	push   %rdx
  401bea:	49 89 e9             	mov    %rbp,%r9
  401bed:	44 8b 05 54 35 20 00 	mov    0x203554(%rip),%r8d        # 605148 <target_id>
  401bf4:	b9 23 33 40 00       	mov    $0x403323,%ecx
  401bf9:	ba 00 20 00 00       	mov    $0x2000,%edx
  401bfe:	be 01 00 00 00       	mov    $0x1,%esi
  401c03:	48 8d 7c 24 20       	lea    0x20(%rsp),%rdi
  401c08:	b8 00 00 00 00       	mov    $0x0,%eax
  401c0d:	e8 4e f2 ff ff       	callq  400e60 <__sprintf_chk@plt>
  401c12:	48 83 c4 20          	add    $0x20,%rsp
  401c16:	83 3d 6b 38 20 00 00 	cmpl   $0x0,0x20386b(%rip)        # 605488 <notify>
  401c1d:	0f 84 d3 00 00 00    	je     401cf6 <notify_server+0x17a>
  401c23:	85 db                	test   %ebx,%ebx
  401c25:	0f 84 bc 00 00 00    	je     401ce7 <notify_server+0x16b>
  401c2b:	4c 8d 8c 24 00 20 00 	lea    0x2000(%rsp),%r9
  401c32:	00 
  401c33:	41 b8 00 00 00 00    	mov    $0x0,%r8d
  401c39:	48 89 e1             	mov    %rsp,%rcx
  401c3c:	48 8b 15 0d 35 20 00 	mov    0x20350d(%rip),%rdx        # 605150 <lab>
  401c43:	48 8b 35 0e 35 20 00 	mov    0x20350e(%rip),%rsi        # 605158 <course>
  401c4a:	48 8b 3d ef 34 20 00 	mov    0x2034ef(%rip),%rdi        # 605140 <user_id>
  401c51:	e8 31 11 00 00       	callq  402d87 <driver_post>
  401c56:	85 c0                	test   %eax,%eax
  401c58:	78 67                	js     401cc1 <notify_server+0x145>
  401c5a:	bf 68 34 40 00       	mov    $0x403468,%edi
  401c5f:	e8 5c f0 ff ff       	callq  400cc0 <puts@plt>
  401c64:	bf 4b 33 40 00       	mov    $0x40334b,%edi
  401c69:	e8 52 f0 ff ff       	callq  400cc0 <puts@plt>
  401c6e:	48 8b 84 24 08 40 00 	mov    0x4008(%rsp),%rax
  401c75:	00 
  401c76:	64 48 33 04 25 28 00 	xor    %fs:0x28,%rax
  401c7d:	00 00 
  401c7f:	0f 85 f5 00 00 00    	jne    401d7a <notify_server+0x1fe>
  401c85:	48 81 c4 18 40 00 00 	add    $0x4018,%rsp
  401c8c:	5b                   	pop    %rbx
  401c8d:	5d                   	pop    %rbp
  401c8e:	c3                   	retq   
  401c8f:	be 38 34 40 00       	mov    $0x403438,%esi
  401c94:	bf 01 00 00 00       	mov    $0x1,%edi
  401c99:	b8 00 00 00 00       	mov    $0x0,%eax
  401c9e:	e8 3d f1 ff ff       	callq  400de0 <__printf_chk@plt>
  401ca3:	bf 01 00 00 00       	mov    $0x1,%edi
  401ca8:	e8 83 f1 ff ff       	callq  400e30 <exit@plt>
  401cad:	ba ff ff ff ff       	mov    $0xffffffff,%edx
  401cb2:	e9 1e ff ff ff       	jmpq   401bd5 <notify_server+0x59>
  401cb7:	bd 1e 33 40 00       	mov    $0x40331e,%ebp
  401cbc:	e9 21 ff ff ff       	jmpq   401be2 <notify_server+0x66>
  401cc1:	48 8d 94 24 00 20 00 	lea    0x2000(%rsp),%rdx
  401cc8:	00 
  401cc9:	be 3f 33 40 00       	mov    $0x40333f,%esi
  401cce:	bf 01 00 00 00       	mov    $0x1,%edi
  401cd3:	b8 00 00 00 00       	mov    $0x0,%eax
  401cd8:	e8 03 f1 ff ff       	callq  400de0 <__printf_chk@plt>
  401cdd:	bf 01 00 00 00       	mov    $0x1,%edi
  401ce2:	e8 49 f1 ff ff       	callq  400e30 <exit@plt>
  401ce7:	bf 55 33 40 00       	mov    $0x403355,%edi
  401cec:	e8 cf ef ff ff       	callq  400cc0 <puts@plt>
  401cf1:	e9 78 ff ff ff       	jmpq   401c6e <notify_server+0xf2>
  401cf6:	48 89 ea             	mov    %rbp,%rdx
  401cf9:	be a0 34 40 00       	mov    $0x4034a0,%esi
  401cfe:	bf 01 00 00 00       	mov    $0x1,%edi
  401d03:	b8 00 00 00 00       	mov    $0x0,%eax
  401d08:	e8 d3 f0 ff ff       	callq  400de0 <__printf_chk@plt>
  401d0d:	48 8b 15 2c 34 20 00 	mov    0x20342c(%rip),%rdx        # 605140 <user_id>
  401d14:	be 5c 33 40 00       	mov    $0x40335c,%esi
  401d19:	bf 01 00 00 00       	mov    $0x1,%edi
  401d1e:	b8 00 00 00 00       	mov    $0x0,%eax
  401d23:	e8 b8 f0 ff ff       	callq  400de0 <__printf_chk@plt>
  401d28:	48 8b 15 29 34 20 00 	mov    0x203429(%rip),%rdx        # 605158 <course>
  401d2f:	be 69 33 40 00       	mov    $0x403369,%esi
  401d34:	bf 01 00 00 00       	mov    $0x1,%edi
  401d39:	b8 00 00 00 00       	mov    $0x0,%eax
  401d3e:	e8 9d f0 ff ff       	callq  400de0 <__printf_chk@plt>
  401d43:	48 8b 15 06 34 20 00 	mov    0x203406(%rip),%rdx        # 605150 <lab>
  401d4a:	be 75 33 40 00       	mov    $0x403375,%esi
  401d4f:	bf 01 00 00 00       	mov    $0x1,%edi
  401d54:	b8 00 00 00 00       	mov    $0x0,%eax
  401d59:	e8 82 f0 ff ff       	callq  400de0 <__printf_chk@plt>
  401d5e:	48 89 e2             	mov    %rsp,%rdx
  401d61:	be 7e 33 40 00       	mov    $0x40337e,%esi
  401d66:	bf 01 00 00 00       	mov    $0x1,%edi
  401d6b:	b8 00 00 00 00       	mov    $0x0,%eax
  401d70:	e8 6b f0 ff ff       	callq  400de0 <__printf_chk@plt>
  401d75:	e9 f4 fe ff ff       	jmpq   401c6e <notify_server+0xf2>
  401d7a:	e8 61 ef ff ff       	callq  400ce0 <__stack_chk_fail@plt>

0000000000401d7f <validate>:
  401d7f:	53                   	push   %rbx
  401d80:	89 fb                	mov    %edi,%ebx
  401d82:	83 3d 7f 37 20 00 00 	cmpl   $0x0,0x20377f(%rip)        # 605508 <is_checker>
  401d89:	74 6b                	je     401df6 <validate+0x77>
  401d8b:	39 3d 6b 37 20 00    	cmp    %edi,0x20376b(%rip)        # 6054fc <vlevel>
  401d91:	75 2f                	jne    401dc2 <validate+0x43>
  401d93:	8b 15 5f 37 20 00    	mov    0x20375f(%rip),%edx        # 6054f8 <check_level>
  401d99:	39 fa                	cmp    %edi,%edx
  401d9b:	75 39                	jne    401dd6 <validate+0x57>
  401d9d:	0f be 15 84 43 20 00 	movsbl 0x204384(%rip),%edx        # 606128 <target_prefix>
  401da4:	41 b8 20 55 60 00    	mov    $0x605520,%r8d
  401daa:	89 f9                	mov    %edi,%ecx
  401dac:	be a8 33 40 00       	mov    $0x4033a8,%esi
  401db1:	bf 01 00 00 00       	mov    $0x1,%edi
  401db6:	b8 00 00 00 00       	mov    $0x0,%eax
  401dbb:	e8 20 f0 ff ff       	callq  400de0 <__printf_chk@plt>
  401dc0:	5b                   	pop    %rbx
  401dc1:	c3                   	retq   
  401dc2:	bf 8a 33 40 00       	mov    $0x40338a,%edi
  401dc7:	e8 f4 ee ff ff       	callq  400cc0 <puts@plt>
  401dcc:	b8 00 00 00 00       	mov    $0x0,%eax
  401dd1:	e8 1f fd ff ff       	callq  401af5 <check_fail>
  401dd6:	89 f9                	mov    %edi,%ecx
  401dd8:	be c8 34 40 00       	mov    $0x4034c8,%esi
  401ddd:	bf 01 00 00 00       	mov    $0x1,%edi
  401de2:	b8 00 00 00 00       	mov    $0x0,%eax
  401de7:	e8 f4 ef ff ff       	callq  400de0 <__printf_chk@plt>
  401dec:	b8 00 00 00 00       	mov    $0x0,%eax
  401df1:	e8 ff fc ff ff       	callq  401af5 <check_fail>
  401df6:	39 3d 00 37 20 00    	cmp    %edi,0x203700(%rip)        # 6054fc <vlevel>
  401dfc:	74 18                	je     401e16 <validate+0x97>
  401dfe:	bf 8a 33 40 00       	mov    $0x40338a,%edi
  401e03:	e8 b8 ee ff ff       	callq  400cc0 <puts@plt>
  401e08:	89 de                	mov    %ebx,%esi
  401e0a:	bf 00 00 00 00       	mov    $0x0,%edi
  401e0f:	e8 68 fd ff ff       	callq  401b7c <notify_server>
  401e14:	eb aa                	jmp    401dc0 <validate+0x41>
  401e16:	0f be 0d 0b 43 20 00 	movsbl 0x20430b(%rip),%ecx        # 606128 <target_prefix>
  401e1d:	89 fa                	mov    %edi,%edx
  401e1f:	be f0 34 40 00       	mov    $0x4034f0,%esi
  401e24:	bf 01 00 00 00       	mov    $0x1,%edi
  401e29:	b8 00 00 00 00       	mov    $0x0,%eax
  401e2e:	e8 ad ef ff ff       	callq  400de0 <__printf_chk@plt>
  401e33:	89 de                	mov    %ebx,%esi
  401e35:	bf 01 00 00 00       	mov    $0x1,%edi
  401e3a:	e8 3d fd ff ff       	callq  401b7c <notify_server>
  401e3f:	e9 7c ff ff ff       	jmpq   401dc0 <validate+0x41>

0000000000401e44 <fail>:
  401e44:	48 83 ec 08          	sub    $0x8,%rsp
  401e48:	83 3d b9 36 20 00 00 	cmpl   $0x0,0x2036b9(%rip)        # 605508 <is_checker>
  401e4f:	75 11                	jne    401e62 <fail+0x1e>
  401e51:	89 fe                	mov    %edi,%esi
  401e53:	bf 00 00 00 00       	mov    $0x0,%edi
  401e58:	e8 1f fd ff ff       	callq  401b7c <notify_server>
  401e5d:	48 83 c4 08          	add    $0x8,%rsp
  401e61:	c3                   	retq   
  401e62:	b8 00 00 00 00       	mov    $0x0,%eax
  401e67:	e8 89 fc ff ff       	callq  401af5 <check_fail>

0000000000401e6c <bushandler>:
  401e6c:	48 83 ec 08          	sub    $0x8,%rsp
  401e70:	83 3d 91 36 20 00 00 	cmpl   $0x0,0x203691(%rip)        # 605508 <is_checker>
  401e77:	74 14                	je     401e8d <bushandler+0x21>
  401e79:	bf bd 33 40 00       	mov    $0x4033bd,%edi
  401e7e:	e8 3d ee ff ff       	callq  400cc0 <puts@plt>
  401e83:	b8 00 00 00 00       	mov    $0x0,%eax
  401e88:	e8 68 fc ff ff       	callq  401af5 <check_fail>
  401e8d:	bf 28 35 40 00       	mov    $0x403528,%edi
  401e92:	e8 29 ee ff ff       	callq  400cc0 <puts@plt>
  401e97:	bf c7 33 40 00       	mov    $0x4033c7,%edi
  401e9c:	e8 1f ee ff ff       	callq  400cc0 <puts@plt>
  401ea1:	be 00 00 00 00       	mov    $0x0,%esi
  401ea6:	bf 00 00 00 00       	mov    $0x0,%edi
  401eab:	e8 cc fc ff ff       	callq  401b7c <notify_server>
  401eb0:	bf 01 00 00 00       	mov    $0x1,%edi
  401eb5:	e8 76 ef ff ff       	callq  400e30 <exit@plt>

0000000000401eba <seghandler>:
  401eba:	48 83 ec 08          	sub    $0x8,%rsp
  401ebe:	83 3d 43 36 20 00 00 	cmpl   $0x0,0x203643(%rip)        # 605508 <is_checker>
  401ec5:	74 14                	je     401edb <seghandler+0x21>
  401ec7:	bf dd 33 40 00       	mov    $0x4033dd,%edi
  401ecc:	e8 ef ed ff ff       	callq  400cc0 <puts@plt>
  401ed1:	b8 00 00 00 00       	mov    $0x0,%eax
  401ed6:	e8 1a fc ff ff       	callq  401af5 <check_fail>
  401edb:	bf 48 35 40 00       	mov    $0x403548,%edi
  401ee0:	e8 db ed ff ff       	callq  400cc0 <puts@plt>
  401ee5:	bf c7 33 40 00       	mov    $0x4033c7,%edi
  401eea:	e8 d1 ed ff ff       	callq  400cc0 <puts@plt>
  401eef:	be 00 00 00 00       	mov    $0x0,%esi
  401ef4:	bf 00 00 00 00       	mov    $0x0,%edi
  401ef9:	e8 7e fc ff ff       	callq  401b7c <notify_server>
  401efe:	bf 01 00 00 00       	mov    $0x1,%edi
  401f03:	e8 28 ef ff ff       	callq  400e30 <exit@plt>

0000000000401f08 <illegalhandler>:
  401f08:	48 83 ec 08          	sub    $0x8,%rsp
  401f0c:	83 3d f5 35 20 00 00 	cmpl   $0x0,0x2035f5(%rip)        # 605508 <is_checker>
  401f13:	74 14                	je     401f29 <illegalhandler+0x21>
  401f15:	bf f0 33 40 00       	mov    $0x4033f0,%edi
  401f1a:	e8 a1 ed ff ff       	callq  400cc0 <puts@plt>
  401f1f:	b8 00 00 00 00       	mov    $0x0,%eax
  401f24:	e8 cc fb ff ff       	callq  401af5 <check_fail>
  401f29:	bf 70 35 40 00       	mov    $0x403570,%edi
  401f2e:	e8 8d ed ff ff       	callq  400cc0 <puts@plt>
  401f33:	bf c7 33 40 00       	mov    $0x4033c7,%edi
  401f38:	e8 83 ed ff ff       	callq  400cc0 <puts@plt>
  401f3d:	be 00 00 00 00       	mov    $0x0,%esi
  401f42:	bf 00 00 00 00       	mov    $0x0,%edi
  401f47:	e8 30 fc ff ff       	callq  401b7c <notify_server>
  401f4c:	bf 01 00 00 00       	mov    $0x1,%edi
  401f51:	e8 da ee ff ff       	callq  400e30 <exit@plt>

0000000000401f56 <sigalrmhandler>:
  401f56:	48 83 ec 08          	sub    $0x8,%rsp
  401f5a:	83 3d a7 35 20 00 00 	cmpl   $0x0,0x2035a7(%rip)        # 605508 <is_checker>
  401f61:	74 14                	je     401f77 <sigalrmhandler+0x21>
  401f63:	bf 04 34 40 00       	mov    $0x403404,%edi
  401f68:	e8 53 ed ff ff       	callq  400cc0 <puts@plt>
  401f6d:	b8 00 00 00 00       	mov    $0x0,%eax
  401f72:	e8 7e fb ff ff       	callq  401af5 <check_fail>
  401f77:	ba 05 00 00 00       	mov    $0x5,%edx
  401f7c:	be a0 35 40 00       	mov    $0x4035a0,%esi
  401f81:	bf 01 00 00 00       	mov    $0x1,%edi
  401f86:	b8 00 00 00 00       	mov    $0x0,%eax
  401f8b:	e8 50 ee ff ff       	callq  400de0 <__printf_chk@plt>
  401f90:	be 00 00 00 00       	mov    $0x0,%esi
  401f95:	bf 00 00 00 00       	mov    $0x0,%edi
  401f9a:	e8 dd fb ff ff       	callq  401b7c <notify_server>
  401f9f:	bf 01 00 00 00       	mov    $0x1,%edi
  401fa4:	e8 87 ee ff ff       	callq  400e30 <exit@plt>

0000000000401fa9 <launch>:
  401fa9:	55                   	push   %rbp
  401faa:	48 89 e5             	mov    %rsp,%rbp
  401fad:	48 83 ec 10          	sub    $0x10,%rsp
  401fb1:	48 89 fa             	mov    %rdi,%rdx
  401fb4:	64 48 8b 04 25 28 00 	mov    %fs:0x28,%rax
  401fbb:	00 00 
  401fbd:	48 89 45 f8          	mov    %rax,-0x8(%rbp)
  401fc1:	31 c0                	xor    %eax,%eax
  401fc3:	48 8d 47 1e          	lea    0x1e(%rdi),%rax
  401fc7:	48 83 e0 f0          	and    $0xfffffffffffffff0,%rax
  401fcb:	48 29 c4             	sub    %rax,%rsp
  401fce:	48 8d 7c 24 0f       	lea    0xf(%rsp),%rdi
  401fd3:	48 83 e7 f0          	and    $0xfffffffffffffff0,%rdi
  401fd7:	be f4 00 00 00       	mov    $0xf4,%esi
  401fdc:	e8 1f ed ff ff       	callq  400d00 <memset@plt>
  401fe1:	48 8b 05 b8 34 20 00 	mov    0x2034b8(%rip),%rax        # 6054a0 <stdin@@GLIBC_2.2.5>
  401fe8:	48 39 05 01 35 20 00 	cmp    %rax,0x203501(%rip)        # 6054f0 <infile>
  401fef:	74 38                	je     402029 <launch+0x80>
  401ff1:	c7 05 01 35 20 00 00 	movl   $0x0,0x203501(%rip)        # 6054fc <vlevel>
  401ff8:	00 00 00 
  401ffb:	b8 00 00 00 00       	mov    $0x0,%eax
  402000:	e8 3c f9 ff ff       	callq  401941 <test>
  402005:	83 3d fc 34 20 00 00 	cmpl   $0x0,0x2034fc(%rip)        # 605508 <is_checker>
  40200c:	75 31                	jne    40203f <launch+0x96>
  40200e:	bf 24 34 40 00       	mov    $0x403424,%edi
  402013:	e8 a8 ec ff ff       	callq  400cc0 <puts@plt>
  402018:	48 8b 45 f8          	mov    -0x8(%rbp),%rax
  40201c:	64 48 33 04 25 28 00 	xor    %fs:0x28,%rax
  402023:	00 00 
  402025:	75 2c                	jne    402053 <launch+0xaa>
  402027:	c9                   	leaveq 
  402028:	c3                   	retq   
  402029:	be 0c 34 40 00       	mov    $0x40340c,%esi
  40202e:	bf 01 00 00 00       	mov    $0x1,%edi
  402033:	b8 00 00 00 00       	mov    $0x0,%eax
  402038:	e8 a3 ed ff ff       	callq  400de0 <__printf_chk@plt>
  40203d:	eb b2                	jmp    401ff1 <launch+0x48>
  40203f:	bf 19 34 40 00       	mov    $0x403419,%edi
  402044:	e8 77 ec ff ff       	callq  400cc0 <puts@plt>
  402049:	b8 00 00 00 00       	mov    $0x0,%eax
  40204e:	e8 a2 fa ff ff       	callq  401af5 <check_fail>
  402053:	e8 88 ec ff ff       	callq  400ce0 <__stack_chk_fail@plt>

0000000000402058 <stable_launch>:
  402058:	53                   	push   %rbx
  402059:	48 89 3d 88 34 20 00 	mov    %rdi,0x203488(%rip)        # 6054e8 <global_offset>
  402060:	41 b9 00 00 00 00    	mov    $0x0,%r9d
  402066:	41 b8 00 00 00 00    	mov    $0x0,%r8d
  40206c:	b9 32 01 00 00       	mov    $0x132,%ecx
  402071:	ba 07 00 00 00       	mov    $0x7,%edx
  402076:	be 00 00 10 00       	mov    $0x100000,%esi
  40207b:	bf 00 60 58 55       	mov    $0x55586000,%edi
  402080:	e8 6b ec ff ff       	callq  400cf0 <mmap@plt>
  402085:	48 89 c3             	mov    %rax,%rbx
  402088:	48 3d 00 60 58 55    	cmp    $0x55586000,%rax
  40208e:	75 43                	jne    4020d3 <stable_launch+0x7b>
  402090:	48 8d 90 f8 ff 0f 00 	lea    0xffff8(%rax),%rdx
  402097:	48 89 15 92 40 20 00 	mov    %rdx,0x204092(%rip)        # 606130 <stack_top>
  40209e:	48 89 e0             	mov    %rsp,%rax
  4020a1:	48 89 d4             	mov    %rdx,%rsp
  4020a4:	48 89 c2             	mov    %rax,%rdx
  4020a7:	48 89 15 32 34 20 00 	mov    %rdx,0x203432(%rip)        # 6054e0 <global_save_stack>
  4020ae:	48 8b 3d 33 34 20 00 	mov    0x203433(%rip),%rdi        # 6054e8 <global_offset>
  4020b5:	e8 ef fe ff ff       	callq  401fa9 <launch>
  4020ba:	48 8b 05 1f 34 20 00 	mov    0x20341f(%rip),%rax        # 6054e0 <global_save_stack>
  4020c1:	48 89 c4             	mov    %rax,%rsp
  4020c4:	be 00 00 10 00       	mov    $0x100000,%esi
  4020c9:	48 89 df             	mov    %rbx,%rdi
  4020cc:	e8 ff ec ff ff       	callq  400dd0 <munmap@plt>
  4020d1:	5b                   	pop    %rbx
  4020d2:	c3                   	retq   
  4020d3:	be 00 00 10 00       	mov    $0x100000,%esi
  4020d8:	48 89 c7             	mov    %rax,%rdi
  4020db:	e8 f0 ec ff ff       	callq  400dd0 <munmap@plt>
  4020e0:	b9 00 60 58 55       	mov    $0x55586000,%ecx
  4020e5:	ba d8 35 40 00       	mov    $0x4035d8,%edx
  4020ea:	be 01 00 00 00       	mov    $0x1,%esi
  4020ef:	48 8b 3d ca 33 20 00 	mov    0x2033ca(%rip),%rdi        # 6054c0 <stderr@@GLIBC_2.2.5>
  4020f6:	b8 00 00 00 00       	mov    $0x0,%eax
  4020fb:	e8 50 ed ff ff       	callq  400e50 <__fprintf_chk@plt>
  402100:	bf 01 00 00 00       	mov    $0x1,%edi
  402105:	e8 26 ed ff ff       	callq  400e30 <exit@plt>

000000000040210a <rio_readinitb>:
  40210a:	89 37                	mov    %esi,(%rdi)
  40210c:	c7 47 04 00 00 00 00 	movl   $0x0,0x4(%rdi)
  402113:	48 8d 47 10          	lea    0x10(%rdi),%rax
  402117:	48 89 47 08          	mov    %rax,0x8(%rdi)
  40211b:	c3                   	retq   

000000000040211c <sigalrm_handler>:
  40211c:	48 83 ec 08          	sub    $0x8,%rsp
  402120:	b9 00 00 00 00       	mov    $0x0,%ecx
  402125:	ba 10 36 40 00       	mov    $0x403610,%edx
  40212a:	be 01 00 00 00       	mov    $0x1,%esi
  40212f:	48 8b 3d 8a 33 20 00 	mov    0x20338a(%rip),%rdi        # 6054c0 <stderr@@GLIBC_2.2.5>
  402136:	b8 00 00 00 00       	mov    $0x0,%eax
  40213b:	e8 10 ed ff ff       	callq  400e50 <__fprintf_chk@plt>
  402140:	bf 01 00 00 00       	mov    $0x1,%edi
  402145:	e8 e6 ec ff ff       	callq  400e30 <exit@plt>

000000000040214a <rio_writen>:
  40214a:	41 55                	push   %r13
  40214c:	41 54                	push   %r12
  40214e:	55                   	push   %rbp
  40214f:	53                   	push   %rbx
  402150:	48 83 ec 08          	sub    $0x8,%rsp
  402154:	41 89 fc             	mov    %edi,%r12d
  402157:	48 89 f5             	mov    %rsi,%rbp
  40215a:	49 89 d5             	mov    %rdx,%r13
  40215d:	48 89 d3             	mov    %rdx,%rbx
  402160:	eb 06                	jmp    402168 <rio_writen+0x1e>
  402162:	48 29 c3             	sub    %rax,%rbx
  402165:	48 01 c5             	add    %rax,%rbp
  402168:	48 85 db             	test   %rbx,%rbx
  40216b:	74 24                	je     402191 <rio_writen+0x47>
  40216d:	48 89 da             	mov    %rbx,%rdx
  402170:	48 89 ee             	mov    %rbp,%rsi
  402173:	44 89 e7             	mov    %r12d,%edi
  402176:	e8 55 eb ff ff       	callq  400cd0 <write@plt>
  40217b:	48 85 c0             	test   %rax,%rax
  40217e:	7f e2                	jg     402162 <rio_writen+0x18>
  402180:	e8 fb ea ff ff       	callq  400c80 <__errno_location@plt>
  402185:	83 38 04             	cmpl   $0x4,(%rax)
  402188:	75 15                	jne    40219f <rio_writen+0x55>
  40218a:	b8 00 00 00 00       	mov    $0x0,%eax
  40218f:	eb d1                	jmp    402162 <rio_writen+0x18>
  402191:	4c 89 e8             	mov    %r13,%rax
  402194:	48 83 c4 08          	add    $0x8,%rsp
  402198:	5b                   	pop    %rbx
  402199:	5d                   	pop    %rbp
  40219a:	41 5c                	pop    %r12
  40219c:	41 5d                	pop    %r13
  40219e:	c3                   	retq   
  40219f:	48 c7 c0 ff ff ff ff 	mov    $0xffffffffffffffff,%rax
  4021a6:	eb ec                	jmp    402194 <rio_writen+0x4a>

00000000004021a8 <rio_read>:
  4021a8:	41 55                	push   %r13
  4021aa:	41 54                	push   %r12
  4021ac:	55                   	push   %rbp
  4021ad:	53                   	push   %rbx
  4021ae:	48 83 ec 08          	sub    $0x8,%rsp
  4021b2:	48 89 fb             	mov    %rdi,%rbx
  4021b5:	49 89 f5             	mov    %rsi,%r13
  4021b8:	49 89 d4             	mov    %rdx,%r12
  4021bb:	eb 0a                	jmp    4021c7 <rio_read+0x1f>
  4021bd:	e8 be ea ff ff       	callq  400c80 <__errno_location@plt>
  4021c2:	83 38 04             	cmpl   $0x4,(%rax)
  4021c5:	75 5c                	jne    402223 <rio_read+0x7b>
  4021c7:	8b 6b 04             	mov    0x4(%rbx),%ebp
  4021ca:	85 ed                	test   %ebp,%ebp
  4021cc:	7f 24                	jg     4021f2 <rio_read+0x4a>
  4021ce:	48 8d 6b 10          	lea    0x10(%rbx),%rbp
  4021d2:	8b 3b                	mov    (%rbx),%edi
  4021d4:	ba 00 20 00 00       	mov    $0x2000,%edx
  4021d9:	48 89 ee             	mov    %rbp,%rsi
  4021dc:	e8 4f eb ff ff       	callq  400d30 <read@plt>
  4021e1:	89 43 04             	mov    %eax,0x4(%rbx)
  4021e4:	85 c0                	test   %eax,%eax
  4021e6:	78 d5                	js     4021bd <rio_read+0x15>
  4021e8:	85 c0                	test   %eax,%eax
  4021ea:	74 40                	je     40222c <rio_read+0x84>
  4021ec:	48 89 6b 08          	mov    %rbp,0x8(%rbx)
  4021f0:	eb d5                	jmp    4021c7 <rio_read+0x1f>
  4021f2:	89 e8                	mov    %ebp,%eax
  4021f4:	4c 39 e0             	cmp    %r12,%rax
  4021f7:	72 03                	jb     4021fc <rio_read+0x54>
  4021f9:	44 89 e5             	mov    %r12d,%ebp
  4021fc:	4c 63 e5             	movslq %ebp,%r12
  4021ff:	48 8b 73 08          	mov    0x8(%rbx),%rsi
  402203:	4c 89 e2             	mov    %r12,%rdx
  402206:	4c 89 ef             	mov    %r13,%rdi
  402209:	e8 72 eb ff ff       	callq  400d80 <memcpy@plt>
  40220e:	4c 01 63 08          	add    %r12,0x8(%rbx)
  402212:	29 6b 04             	sub    %ebp,0x4(%rbx)
  402215:	4c 89 e0             	mov    %r12,%rax
  402218:	48 83 c4 08          	add    $0x8,%rsp
  40221c:	5b                   	pop    %rbx
  40221d:	5d                   	pop    %rbp
  40221e:	41 5c                	pop    %r12
  402220:	41 5d                	pop    %r13
  402222:	c3                   	retq   
  402223:	48 c7 c0 ff ff ff ff 	mov    $0xffffffffffffffff,%rax
  40222a:	eb ec                	jmp    402218 <rio_read+0x70>
  40222c:	b8 00 00 00 00       	mov    $0x0,%eax
  402231:	eb e5                	jmp    402218 <rio_read+0x70>

0000000000402233 <rio_readlineb>:
  402233:	41 55                	push   %r13
  402235:	41 54                	push   %r12
  402237:	55                   	push   %rbp
  402238:	53                   	push   %rbx
  402239:	48 83 ec 18          	sub    $0x18,%rsp
  40223d:	49 89 fd             	mov    %rdi,%r13
  402240:	48 89 f5             	mov    %rsi,%rbp
  402243:	49 89 d4             	mov    %rdx,%r12
  402246:	64 48 8b 04 25 28 00 	mov    %fs:0x28,%rax
  40224d:	00 00 
  40224f:	48 89 44 24 08       	mov    %rax,0x8(%rsp)
  402254:	31 c0                	xor    %eax,%eax
  402256:	bb 01 00 00 00       	mov    $0x1,%ebx
  40225b:	4c 39 e3             	cmp    %r12,%rbx
  40225e:	73 47                	jae    4022a7 <rio_readlineb+0x74>
  402260:	ba 01 00 00 00       	mov    $0x1,%edx
  402265:	48 8d 74 24 07       	lea    0x7(%rsp),%rsi
  40226a:	4c 89 ef             	mov    %r13,%rdi
  40226d:	e8 36 ff ff ff       	callq  4021a8 <rio_read>
  402272:	83 f8 01             	cmp    $0x1,%eax
  402275:	75 1c                	jne    402293 <rio_readlineb+0x60>
  402277:	48 8d 45 01          	lea    0x1(%rbp),%rax
  40227b:	0f b6 54 24 07       	movzbl 0x7(%rsp),%edx
  402280:	88 55 00             	mov    %dl,0x0(%rbp)
  402283:	80 7c 24 07 0a       	cmpb   $0xa,0x7(%rsp)
  402288:	74 1a                	je     4022a4 <rio_readlineb+0x71>
  40228a:	48 83 c3 01          	add    $0x1,%rbx
  40228e:	48 89 c5             	mov    %rax,%rbp
  402291:	eb c8                	jmp    40225b <rio_readlineb+0x28>
  402293:	85 c0                	test   %eax,%eax
  402295:	75 32                	jne    4022c9 <rio_readlineb+0x96>
  402297:	48 83 fb 01          	cmp    $0x1,%rbx
  40229b:	75 0a                	jne    4022a7 <rio_readlineb+0x74>
  40229d:	b8 00 00 00 00       	mov    $0x0,%eax
  4022a2:	eb 0a                	jmp    4022ae <rio_readlineb+0x7b>
  4022a4:	48 89 c5             	mov    %rax,%rbp
  4022a7:	c6 45 00 00          	movb   $0x0,0x0(%rbp)
  4022ab:	48 89 d8             	mov    %rbx,%rax
  4022ae:	48 8b 4c 24 08       	mov    0x8(%rsp),%rcx
  4022b3:	64 48 33 0c 25 28 00 	xor    %fs:0x28,%rcx
  4022ba:	00 00 
  4022bc:	75 14                	jne    4022d2 <rio_readlineb+0x9f>
  4022be:	48 83 c4 18          	add    $0x18,%rsp
  4022c2:	5b                   	pop    %rbx
  4022c3:	5d                   	pop    %rbp
  4022c4:	41 5c                	pop    %r12
  4022c6:	41 5d                	pop    %r13
  4022c8:	c3                   	retq   
  4022c9:	48 c7 c0 ff ff ff ff 	mov    $0xffffffffffffffff,%rax
  4022d0:	eb dc                	jmp    4022ae <rio_readlineb+0x7b>
  4022d2:	e8 09 ea ff ff       	callq  400ce0 <__stack_chk_fail@plt>

00000000004022d7 <urlencode>:
  4022d7:	41 54                	push   %r12
  4022d9:	55                   	push   %rbp
  4022da:	53                   	push   %rbx
  4022db:	48 83 ec 10          	sub    $0x10,%rsp
  4022df:	48 89 fb             	mov    %rdi,%rbx
  4022e2:	48 89 f5             	mov    %rsi,%rbp
  4022e5:	64 48 8b 04 25 28 00 	mov    %fs:0x28,%rax
  4022ec:	00 00 
  4022ee:	48 89 44 24 08       	mov    %rax,0x8(%rsp)
  4022f3:	31 c0                	xor    %eax,%eax
  4022f5:	48 c7 c1 ff ff ff ff 	mov    $0xffffffffffffffff,%rcx
  4022fc:	f2 ae                	repnz scas %es:(%rdi),%al
  4022fe:	48 89 ce             	mov    %rcx,%rsi
  402301:	48 f7 d6             	not    %rsi
  402304:	8d 46 ff             	lea    -0x1(%rsi),%eax
  402307:	eb 0f                	jmp    402318 <urlencode+0x41>
  402309:	44 88 45 00          	mov    %r8b,0x0(%rbp)
  40230d:	48 8d 6d 01          	lea    0x1(%rbp),%rbp
  402311:	48 83 c3 01          	add    $0x1,%rbx
  402315:	44 89 e0             	mov    %r12d,%eax
  402318:	44 8d 60 ff          	lea    -0x1(%rax),%r12d
  40231c:	85 c0                	test   %eax,%eax
  40231e:	0f 84 a6 00 00 00    	je     4023ca <urlencode+0xf3>
  402324:	44 0f b6 03          	movzbl (%rbx),%r8d
  402328:	41 80 f8 2a          	cmp    $0x2a,%r8b
  40232c:	0f 94 c2             	sete   %dl
  40232f:	41 80 f8 2d          	cmp    $0x2d,%r8b
  402333:	0f 94 c0             	sete   %al
  402336:	08 c2                	or     %al,%dl
  402338:	75 cf                	jne    402309 <urlencode+0x32>
  40233a:	41 80 f8 2e          	cmp    $0x2e,%r8b
  40233e:	74 c9                	je     402309 <urlencode+0x32>
  402340:	41 80 f8 5f          	cmp    $0x5f,%r8b
  402344:	74 c3                	je     402309 <urlencode+0x32>
  402346:	41 8d 40 d0          	lea    -0x30(%r8),%eax
  40234a:	3c 09                	cmp    $0x9,%al
  40234c:	76 bb                	jbe    402309 <urlencode+0x32>
  40234e:	41 8d 40 bf          	lea    -0x41(%r8),%eax
  402352:	3c 19                	cmp    $0x19,%al
  402354:	76 b3                	jbe    402309 <urlencode+0x32>
  402356:	41 8d 40 9f          	lea    -0x61(%r8),%eax
  40235a:	3c 19                	cmp    $0x19,%al
  40235c:	76 ab                	jbe    402309 <urlencode+0x32>
  40235e:	41 80 f8 20          	cmp    $0x20,%r8b
  402362:	74 54                	je     4023b8 <urlencode+0xe1>
  402364:	41 8d 40 e0          	lea    -0x20(%r8),%eax
  402368:	3c 5f                	cmp    $0x5f,%al
  40236a:	0f 96 c2             	setbe  %dl
  40236d:	41 80 f8 09          	cmp    $0x9,%r8b
  402371:	0f 94 c0             	sete   %al
  402374:	08 c2                	or     %al,%dl
  402376:	74 4d                	je     4023c5 <urlencode+0xee>
  402378:	45 0f b6 c0          	movzbl %r8b,%r8d
  40237c:	b9 a8 36 40 00       	mov    $0x4036a8,%ecx
  402381:	ba 08 00 00 00       	mov    $0x8,%edx
  402386:	be 01 00 00 00       	mov    $0x1,%esi
  40238b:	48 89 e7             	mov    %rsp,%rdi
  40238e:	b8 00 00 00 00       	mov    $0x0,%eax
  402393:	e8 c8 ea ff ff       	callq  400e60 <__sprintf_chk@plt>
  402398:	0f b6 04 24          	movzbl (%rsp),%eax
  40239c:	88 45 00             	mov    %al,0x0(%rbp)
  40239f:	0f b6 44 24 01       	movzbl 0x1(%rsp),%eax
  4023a4:	88 45 01             	mov    %al,0x1(%rbp)
  4023a7:	0f b6 44 24 02       	movzbl 0x2(%rsp),%eax
  4023ac:	88 45 02             	mov    %al,0x2(%rbp)
  4023af:	48 8d 6d 03          	lea    0x3(%rbp),%rbp
  4023b3:	e9 59 ff ff ff       	jmpq   402311 <urlencode+0x3a>
  4023b8:	c6 45 00 2b          	movb   $0x2b,0x0(%rbp)
  4023bc:	48 8d 6d 01          	lea    0x1(%rbp),%rbp
  4023c0:	e9 4c ff ff ff       	jmpq   402311 <urlencode+0x3a>
  4023c5:	b8 ff ff ff ff       	mov    $0xffffffff,%eax
  4023ca:	48 8b 74 24 08       	mov    0x8(%rsp),%rsi
  4023cf:	64 48 33 34 25 28 00 	xor    %fs:0x28,%rsi
  4023d6:	00 00 
  4023d8:	75 09                	jne    4023e3 <urlencode+0x10c>
  4023da:	48 83 c4 10          	add    $0x10,%rsp
  4023de:	5b                   	pop    %rbx
  4023df:	5d                   	pop    %rbp
  4023e0:	41 5c                	pop    %r12
  4023e2:	c3                   	retq   
  4023e3:	e8 f8 e8 ff ff       	callq  400ce0 <__stack_chk_fail@plt>

00000000004023e8 <submitr>:
  4023e8:	41 57                	push   %r15
  4023ea:	41 56                	push   %r14
  4023ec:	41 55                	push   %r13
  4023ee:	41 54                	push   %r12
  4023f0:	55                   	push   %rbp
  4023f1:	53                   	push   %rbx
  4023f2:	48 81 ec 58 a0 00 00 	sub    $0xa058,%rsp
  4023f9:	49 89 fc             	mov    %rdi,%r12
  4023fc:	89 74 24 04          	mov    %esi,0x4(%rsp)
  402400:	49 89 d7             	mov    %rdx,%r15
  402403:	49 89 ce             	mov    %rcx,%r14
  402406:	4c 89 44 24 08       	mov    %r8,0x8(%rsp)
  40240b:	4d 89 cd             	mov    %r9,%r13
  40240e:	48 8b ac 24 90 a0 00 	mov    0xa090(%rsp),%rbp
  402415:	00 
  402416:	64 48 8b 04 25 28 00 	mov    %fs:0x28,%rax
  40241d:	00 00 
  40241f:	48 89 84 24 48 a0 00 	mov    %rax,0xa048(%rsp)
  402426:	00 
  402427:	31 c0                	xor    %eax,%eax
  402429:	c7 44 24 1c 00 00 00 	movl   $0x0,0x1c(%rsp)
  402430:	00 
  402431:	ba 00 00 00 00       	mov    $0x0,%edx
  402436:	be 01 00 00 00       	mov    $0x1,%esi
  40243b:	bf 02 00 00 00       	mov    $0x2,%edi
  402440:	e8 2b ea ff ff       	callq  400e70 <socket@plt>
  402445:	85 c0                	test   %eax,%eax
  402447:	0f 88 9b 02 00 00    	js     4026e8 <submitr+0x300>
  40244d:	89 c3                	mov    %eax,%ebx
  40244f:	4c 89 e7             	mov    %r12,%rdi
  402452:	e8 f9 e8 ff ff       	callq  400d50 <gethostbyname@plt>
  402457:	48 85 c0             	test   %rax,%rax
  40245a:	0f 84 d4 02 00 00    	je     402734 <submitr+0x34c>
  402460:	48 c7 44 24 22 00 00 	movq   $0x0,0x22(%rsp)
  402467:	00 00 
  402469:	c7 44 24 2a 00 00 00 	movl   $0x0,0x2a(%rsp)
  402470:	00 
  402471:	66 c7 44 24 2e 00 00 	movw   $0x0,0x2e(%rsp)
  402478:	66 c7 44 24 20 02 00 	movw   $0x2,0x20(%rsp)
  40247f:	48 63 50 14          	movslq 0x14(%rax),%rdx
  402483:	48 8b 40 18          	mov    0x18(%rax),%rax
  402487:	48 8b 30             	mov    (%rax),%rsi
  40248a:	48 8d 7c 24 24       	lea    0x24(%rsp),%rdi
  40248f:	b9 0c 00 00 00       	mov    $0xc,%ecx
  402494:	e8 c7 e8 ff ff       	callq  400d60 <__memmove_chk@plt>
  402499:	0f b7 44 24 04       	movzwl 0x4(%rsp),%eax
  40249e:	66 c1 c8 08          	ror    $0x8,%ax
  4024a2:	66 89 44 24 22       	mov    %ax,0x22(%rsp)
  4024a7:	ba 10 00 00 00       	mov    $0x10,%edx
  4024ac:	48 8d 74 24 20       	lea    0x20(%rsp),%rsi
  4024b1:	89 df                	mov    %ebx,%edi
  4024b3:	e8 88 e9 ff ff       	callq  400e40 <connect@plt>
  4024b8:	85 c0                	test   %eax,%eax
  4024ba:	0f 88 dc 02 00 00    	js     40279c <submitr+0x3b4>
  4024c0:	48 c7 c6 ff ff ff ff 	mov    $0xffffffffffffffff,%rsi
  4024c7:	b8 00 00 00 00       	mov    $0x0,%eax
  4024cc:	48 89 f1             	mov    %rsi,%rcx
  4024cf:	4c 89 ef             	mov    %r13,%rdi
  4024d2:	f2 ae                	repnz scas %es:(%rdi),%al
  4024d4:	48 89 ca             	mov    %rcx,%rdx
  4024d7:	48 f7 d2             	not    %rdx
  4024da:	48 89 f1             	mov    %rsi,%rcx
  4024dd:	4c 89 ff             	mov    %r15,%rdi
  4024e0:	f2 ae                	repnz scas %es:(%rdi),%al
  4024e2:	48 f7 d1             	not    %rcx
  4024e5:	49 89 c8             	mov    %rcx,%r8
  4024e8:	48 89 f1             	mov    %rsi,%rcx
  4024eb:	4c 89 f7             	mov    %r14,%rdi
  4024ee:	f2 ae                	repnz scas %es:(%rdi),%al
  4024f0:	48 f7 d1             	not    %rcx
  4024f3:	4d 8d 44 08 fe       	lea    -0x2(%r8,%rcx,1),%r8
  4024f8:	48 89 f1             	mov    %rsi,%rcx
  4024fb:	48 8b 7c 24 08       	mov    0x8(%rsp),%rdi
  402500:	f2 ae                	repnz scas %es:(%rdi),%al
  402502:	48 89 c8             	mov    %rcx,%rax
  402505:	48 f7 d0             	not    %rax
  402508:	49 8d 4c 00 ff       	lea    -0x1(%r8,%rax,1),%rcx
  40250d:	48 8d 44 52 fd       	lea    -0x3(%rdx,%rdx,2),%rax
  402512:	48 8d 84 01 80 00 00 	lea    0x80(%rcx,%rax,1),%rax
  402519:	00 
  40251a:	48 3d 00 20 00 00    	cmp    $0x2000,%rax
  402520:	0f 87 d0 02 00 00    	ja     4027f6 <submitr+0x40e>
  402526:	48 8d b4 24 40 40 00 	lea    0x4040(%rsp),%rsi
  40252d:	00 
  40252e:	b9 00 04 00 00       	mov    $0x400,%ecx
  402533:	b8 00 00 00 00       	mov    $0x0,%eax
  402538:	48 89 f7             	mov    %rsi,%rdi
  40253b:	f3 48 ab             	rep stos %rax,%es:(%rdi)
  40253e:	4c 89 ef             	mov    %r13,%rdi
  402541:	e8 91 fd ff ff       	callq  4022d7 <urlencode>
  402546:	85 c0                	test   %eax,%eax
  402548:	0f 88 1b 03 00 00    	js     402869 <submitr+0x481>
  40254e:	4c 8d ac 24 40 20 00 	lea    0x2040(%rsp),%r13
  402555:	00 
  402556:	41 54                	push   %r12
  402558:	48 8d 84 24 48 40 00 	lea    0x4048(%rsp),%rax
  40255f:	00 
  402560:	50                   	push   %rax
  402561:	4d 89 f9             	mov    %r15,%r9
  402564:	4d 89 f0             	mov    %r14,%r8
  402567:	b9 38 36 40 00       	mov    $0x403638,%ecx
  40256c:	ba 00 20 00 00       	mov    $0x2000,%edx
  402571:	be 01 00 00 00       	mov    $0x1,%esi
  402576:	4c 89 ef             	mov    %r13,%rdi
  402579:	b8 00 00 00 00       	mov    $0x0,%eax
  40257e:	e8 dd e8 ff ff       	callq  400e60 <__sprintf_chk@plt>
  402583:	48 c7 c1 ff ff ff ff 	mov    $0xffffffffffffffff,%rcx
  40258a:	b8 00 00 00 00       	mov    $0x0,%eax
  40258f:	4c 89 ef             	mov    %r13,%rdi
  402592:	f2 ae                	repnz scas %es:(%rdi),%al
  402594:	48 89 ca             	mov    %rcx,%rdx
  402597:	48 f7 d2             	not    %rdx
  40259a:	48 8d 52 ff          	lea    -0x1(%rdx),%rdx
  40259e:	4c 89 ee             	mov    %r13,%rsi
  4025a1:	89 df                	mov    %ebx,%edi
  4025a3:	e8 a2 fb ff ff       	callq  40214a <rio_writen>
  4025a8:	48 83 c4 10          	add    $0x10,%rsp
  4025ac:	48 85 c0             	test   %rax,%rax
  4025af:	0f 88 3f 03 00 00    	js     4028f4 <submitr+0x50c>
  4025b5:	89 de                	mov    %ebx,%esi
  4025b7:	48 8d 7c 24 30       	lea    0x30(%rsp),%rdi
  4025bc:	e8 49 fb ff ff       	callq  40210a <rio_readinitb>
  4025c1:	ba 00 20 00 00       	mov    $0x2000,%edx
  4025c6:	48 8d b4 24 40 20 00 	lea    0x2040(%rsp),%rsi
  4025cd:	00 
  4025ce:	48 8d 7c 24 30       	lea    0x30(%rsp),%rdi
  4025d3:	e8 5b fc ff ff       	callq  402233 <rio_readlineb>
  4025d8:	48 85 c0             	test   %rax,%rax
  4025db:	0f 8e 82 03 00 00    	jle    402963 <submitr+0x57b>
  4025e1:	4c 8d 84 24 40 80 00 	lea    0x8040(%rsp),%r8
  4025e8:	00 
  4025e9:	48 8d 4c 24 1c       	lea    0x1c(%rsp),%rcx
  4025ee:	48 8d 94 24 40 60 00 	lea    0x6040(%rsp),%rdx
  4025f5:	00 
  4025f6:	be af 36 40 00       	mov    $0x4036af,%esi
  4025fb:	48 8d bc 24 40 20 00 	lea    0x2040(%rsp),%rdi
  402602:	00 
  402603:	b8 00 00 00 00       	mov    $0x0,%eax
  402608:	e8 b3 e7 ff ff       	callq  400dc0 <__isoc99_sscanf@plt>
  40260d:	48 8d b4 24 40 20 00 	lea    0x2040(%rsp),%rsi
  402614:	00 
  402615:	bf c6 36 40 00       	mov    $0x4036c6,%edi
  40261a:	b9 03 00 00 00       	mov    $0x3,%ecx
  40261f:	f3 a6                	repz cmpsb %es:(%rdi),%ds:(%rsi)
  402621:	0f 97 c0             	seta   %al
  402624:	1c 00                	sbb    $0x0,%al
  402626:	84 c0                	test   %al,%al
  402628:	0f 84 b3 03 00 00    	je     4029e1 <submitr+0x5f9>
  40262e:	ba 00 20 00 00       	mov    $0x2000,%edx
  402633:	48 8d b4 24 40 20 00 	lea    0x2040(%rsp),%rsi
  40263a:	00 
  40263b:	48 8d 7c 24 30       	lea    0x30(%rsp),%rdi
  402640:	e8 ee fb ff ff       	callq  402233 <rio_readlineb>
  402645:	48 85 c0             	test   %rax,%rax
  402648:	7f c3                	jg     40260d <submitr+0x225>
  40264a:	48 b8 45 72 72 6f 72 	movabs $0x43203a726f727245,%rax
  402651:	3a 20 43 
  402654:	48 ba 6c 69 65 6e 74 	movabs $0x6e7520746e65696c,%rdx
  40265b:	20 75 6e 
  40265e:	48 89 45 00          	mov    %rax,0x0(%rbp)
  402662:	48 89 55 08          	mov    %rdx,0x8(%rbp)
  402666:	48 b8 61 62 6c 65 20 	movabs $0x206f7420656c6261,%rax
  40266d:	74 6f 20 
  402670:	48 ba 72 65 61 64 20 	movabs $0x6165682064616572,%rdx
  402677:	68 65 61 
  40267a:	48 89 45 10          	mov    %rax,0x10(%rbp)
  40267e:	48 89 55 18          	mov    %rdx,0x18(%rbp)
  402682:	48 b8 64 65 72 73 20 	movabs $0x6f72662073726564,%rax
  402689:	66 72 6f 
  40268c:	48 ba 6d 20 74 68 65 	movabs $0x657220656874206d,%rdx
  402693:	20 72 65 
  402696:	48 89 45 20          	mov    %rax,0x20(%rbp)
  40269a:	48 89 55 28          	mov    %rdx,0x28(%rbp)
  40269e:	48 b8 73 75 6c 74 20 	movabs $0x72657320746c7573,%rax
  4026a5:	73 65 72 
  4026a8:	48 89 45 30          	mov    %rax,0x30(%rbp)
  4026ac:	c7 45 38 76 65 72 00 	movl   $0x726576,0x38(%rbp)
  4026b3:	89 df                	mov    %ebx,%edi
  4026b5:	e8 66 e6 ff ff       	callq  400d20 <close@plt>
  4026ba:	b8 ff ff ff ff       	mov    $0xffffffff,%eax
  4026bf:	48 8b 9c 24 48 a0 00 	mov    0xa048(%rsp),%rbx
  4026c6:	00 
  4026c7:	64 48 33 1c 25 28 00 	xor    %fs:0x28,%rbx
  4026ce:	00 00 
  4026d0:	0f 85 76 04 00 00    	jne    402b4c <submitr+0x764>
  4026d6:	48 81 c4 58 a0 00 00 	add    $0xa058,%rsp
  4026dd:	5b                   	pop    %rbx
  4026de:	5d                   	pop    %rbp
  4026df:	41 5c                	pop    %r12
  4026e1:	41 5d                	pop    %r13
  4026e3:	41 5e                	pop    %r14
  4026e5:	41 5f                	pop    %r15
  4026e7:	c3                   	retq   
  4026e8:	48 b8 45 72 72 6f 72 	movabs $0x43203a726f727245,%rax
  4026ef:	3a 20 43 
  4026f2:	48 ba 6c 69 65 6e 74 	movabs $0x6e7520746e65696c,%rdx
  4026f9:	20 75 6e 
  4026fc:	48 89 45 00          	mov    %rax,0x0(%rbp)
  402700:	48 89 55 08          	mov    %rdx,0x8(%rbp)
  402704:	48 b8 61 62 6c 65 20 	movabs $0x206f7420656c6261,%rax
  40270b:	74 6f 20 
  40270e:	48 ba 63 72 65 61 74 	movabs $0x7320657461657263,%rdx
  402715:	65 20 73 
  402718:	48 89 45 10          	mov    %rax,0x10(%rbp)
  40271c:	48 89 55 18          	mov    %rdx,0x18(%rbp)
  402720:	c7 45 20 6f 63 6b 65 	movl   $0x656b636f,0x20(%rbp)
  402727:	66 c7 45 24 74 00    	movw   $0x74,0x24(%rbp)
  40272d:	b8 ff ff ff ff       	mov    $0xffffffff,%eax
  402732:	eb 8b                	jmp    4026bf <submitr+0x2d7>
  402734:	48 b8 45 72 72 6f 72 	movabs $0x44203a726f727245,%rax
  40273b:	3a 20 44 
  40273e:	48 ba 4e 53 20 69 73 	movabs $0x6e7520736920534e,%rdx
  402745:	20 75 6e 
  402748:	48 89 45 00          	mov    %rax,0x0(%rbp)
  40274c:	48 89 55 08          	mov    %rdx,0x8(%rbp)
  402750:	48 b8 61 62 6c 65 20 	movabs $0x206f7420656c6261,%rax
  402757:	74 6f 20 
  40275a:	48 ba 72 65 73 6f 6c 	movabs $0x2065766c6f736572,%rdx
  402761:	76 65 20 
  402764:	48 89 45 10          	mov    %rax,0x10(%rbp)
  402768:	48 89 55 18          	mov    %rdx,0x18(%rbp)
  40276c:	48 b8 73 65 72 76 65 	movabs $0x6120726576726573,%rax
  402773:	72 20 61 
  402776:	48 89 45 20          	mov    %rax,0x20(%rbp)
  40277a:	c7 45 28 64 64 72 65 	movl   $0x65726464,0x28(%rbp)
  402781:	66 c7 45 2c 73 73    	movw   $0x7373,0x2c(%rbp)
  402787:	c6 45 2e 00          	movb   $0x0,0x2e(%rbp)
  40278b:	89 df                	mov    %ebx,%edi
  40278d:	e8 8e e5 ff ff       	callq  400d20 <close@plt>
  402792:	b8 ff ff ff ff       	mov    $0xffffffff,%eax
  402797:	e9 23 ff ff ff       	jmpq   4026bf <submitr+0x2d7>
  40279c:	48 b8 45 72 72 6f 72 	movabs $0x55203a726f727245,%rax
  4027a3:	3a 20 55 
  4027a6:	48 ba 6e 61 62 6c 65 	movabs $0x6f7420656c62616e,%rdx
  4027ad:	20 74 6f 
  4027b0:	48 89 45 00          	mov    %rax,0x0(%rbp)
  4027b4:	48 89 55 08          	mov    %rdx,0x8(%rbp)
  4027b8:	48 b8 20 63 6f 6e 6e 	movabs $0x7463656e6e6f6320,%rax
  4027bf:	65 63 74 
  4027c2:	48 ba 20 74 6f 20 74 	movabs $0x20656874206f7420,%rdx
  4027c9:	68 65 20 
  4027cc:	48 89 45 10          	mov    %rax,0x10(%rbp)
  4027d0:	48 89 55 18          	mov    %rdx,0x18(%rbp)
  4027d4:	c7 45 20 73 65 72 76 	movl   $0x76726573,0x20(%rbp)
  4027db:	66 c7 45 24 65 72    	movw   $0x7265,0x24(%rbp)
  4027e1:	c6 45 26 00          	movb   $0x0,0x26(%rbp)
  4027e5:	89 df                	mov    %ebx,%edi
  4027e7:	e8 34 e5 ff ff       	callq  400d20 <close@plt>
  4027ec:	b8 ff ff ff ff       	mov    $0xffffffff,%eax
  4027f1:	e9 c9 fe ff ff       	jmpq   4026bf <submitr+0x2d7>
  4027f6:	48 b8 45 72 72 6f 72 	movabs $0x52203a726f727245,%rax
  4027fd:	3a 20 52 
  402800:	48 ba 65 73 75 6c 74 	movabs $0x747320746c757365,%rdx
  402807:	20 73 74 
  40280a:	48 89 45 00          	mov    %rax,0x0(%rbp)
  40280e:	48 89 55 08          	mov    %rdx,0x8(%rbp)
  402812:	48 b8 72 69 6e 67 20 	movabs $0x6f6f7420676e6972,%rax
  402819:	74 6f 6f 
  40281c:	48 ba 20 6c 61 72 67 	movabs $0x202e656772616c20,%rdx
  402823:	65 2e 20 
  402826:	48 89 45 10          	mov    %rax,0x10(%rbp)
  40282a:	48 89 55 18          	mov    %rdx,0x18(%rbp)
  40282e:	48 b8 49 6e 63 72 65 	movabs $0x6573616572636e49,%rax
  402835:	61 73 65 
  402838:	48 ba 20 53 55 42 4d 	movabs $0x5254494d42555320,%rdx
  40283f:	49 54 52 
  402842:	48 89 45 20          	mov    %rax,0x20(%rbp)
  402846:	48 89 55 28          	mov    %rdx,0x28(%rbp)
  40284a:	48 b8 5f 4d 41 58 42 	movabs $0x46554258414d5f,%rax
  402851:	55 46 00 
  402854:	48 89 45 30          	mov    %rax,0x30(%rbp)
  402858:	89 df                	mov    %ebx,%edi
  40285a:	e8 c1 e4 ff ff       	callq  400d20 <close@plt>
  40285f:	b8 ff ff ff ff       	mov    $0xffffffff,%eax
  402864:	e9 56 fe ff ff       	jmpq   4026bf <submitr+0x2d7>
  402869:	48 b8 45 72 72 6f 72 	movabs $0x52203a726f727245,%rax
  402870:	3a 20 52 
  402873:	48 ba 65 73 75 6c 74 	movabs $0x747320746c757365,%rdx
  40287a:	20 73 74 
  40287d:	48 89 45 00          	mov    %rax,0x0(%rbp)
  402881:	48 89 55 08          	mov    %rdx,0x8(%rbp)
  402885:	48 b8 72 69 6e 67 20 	movabs $0x6e6f6320676e6972,%rax
  40288c:	63 6f 6e 
  40288f:	48 ba 74 61 69 6e 73 	movabs $0x6e6120736e696174,%rdx
  402896:	20 61 6e 
  402899:	48 89 45 10          	mov    %rax,0x10(%rbp)
  40289d:	48 89 55 18          	mov    %rdx,0x18(%rbp)
  4028a1:	48 b8 20 69 6c 6c 65 	movabs $0x6c6167656c6c6920,%rax
  4028a8:	67 61 6c 
  4028ab:	48 ba 20 6f 72 20 75 	movabs $0x72706e7520726f20,%rdx
  4028b2:	6e 70 72 
  4028b5:	48 89 45 20          	mov    %rax,0x20(%rbp)
  4028b9:	48 89 55 28          	mov    %rdx,0x28(%rbp)
  4028bd:	48 b8 69 6e 74 61 62 	movabs $0x20656c6261746e69,%rax
  4028c4:	6c 65 20 
  4028c7:	48 ba 63 68 61 72 61 	movabs $0x6574636172616863,%rdx
  4028ce:	63 74 65 
  4028d1:	48 89 45 30          	mov    %rax,0x30(%rbp)
  4028d5:	48 89 55 38          	mov    %rdx,0x38(%rbp)
  4028d9:	66 c7 45 40 72 2e    	movw   $0x2e72,0x40(%rbp)
  4028df:	c6 45 42 00          	movb   $0x0,0x42(%rbp)
  4028e3:	89 df                	mov    %ebx,%edi
  4028e5:	e8 36 e4 ff ff       	callq  400d20 <close@plt>
  4028ea:	b8 ff ff ff ff       	mov    $0xffffffff,%eax
  4028ef:	e9 cb fd ff ff       	jmpq   4026bf <submitr+0x2d7>
  4028f4:	48 b8 45 72 72 6f 72 	movabs $0x43203a726f727245,%rax
  4028fb:	3a 20 43 
  4028fe:	48 ba 6c 69 65 6e 74 	movabs $0x6e7520746e65696c,%rdx
  402905:	20 75 6e 
  402908:	48 89 45 00          	mov    %rax,0x0(%rbp)
  40290c:	48 89 55 08          	mov    %rdx,0x8(%rbp)
  402910:	48 b8 61 62 6c 65 20 	movabs $0x206f7420656c6261,%rax
  402917:	74 6f 20 
  40291a:	48 ba 77 72 69 74 65 	movabs $0x6f74206574697277,%rdx
  402921:	20 74 6f 
  402924:	48 89 45 10          	mov    %rax,0x10(%rbp)
  402928:	48 89 55 18          	mov    %rdx,0x18(%rbp)
  40292c:	48 b8 20 74 68 65 20 	movabs $0x7365722065687420,%rax
  402933:	72 65 73 
  402936:	48 ba 75 6c 74 20 73 	movabs $0x7672657320746c75,%rdx
  40293d:	65 72 76 
  402940:	48 89 45 20          	mov    %rax,0x20(%rbp)
  402944:	48 89 55 28          	mov    %rdx,0x28(%rbp)
  402948:	66 c7 45 30 65 72    	movw   $0x7265,0x30(%rbp)
  40294e:	c6 45 32 00          	movb   $0x0,0x32(%rbp)
  402952:	89 df                	mov    %ebx,%edi
  402954:	e8 c7 e3 ff ff       	callq  400d20 <close@plt>
  402959:	b8 ff ff ff ff       	mov    $0xffffffff,%eax
  40295e:	e9 5c fd ff ff       	jmpq   4026bf <submitr+0x2d7>
  402963:	48 b8 45 72 72 6f 72 	movabs $0x43203a726f727245,%rax
  40296a:	3a 20 43 
  40296d:	48 ba 6c 69 65 6e 74 	movabs $0x6e7520746e65696c,%rdx
  402974:	20 75 6e 
  402977:	48 89 45 00          	mov    %rax,0x0(%rbp)
  40297b:	48 89 55 08          	mov    %rdx,0x8(%rbp)
  40297f:	48 b8 61 62 6c 65 20 	movabs $0x206f7420656c6261,%rax
  402986:	74 6f 20 
  402989:	48 ba 72 65 61 64 20 	movabs $0x7269662064616572,%rdx
  402990:	66 69 72 
  402993:	48 89 45 10          	mov    %rax,0x10(%rbp)
  402997:	48 89 55 18          	mov    %rdx,0x18(%rbp)
  40299b:	48 b8 73 74 20 68 65 	movabs $0x6564616568207473,%rax
  4029a2:	61 64 65 
  4029a5:	48 ba 72 20 66 72 6f 	movabs $0x72206d6f72662072,%rdx
  4029ac:	6d 20 72 
  4029af:	48 89 45 20          	mov    %rax,0x20(%rbp)
  4029b3:	48 89 55 28          	mov    %rdx,0x28(%rbp)
  4029b7:	48 b8 65 73 75 6c 74 	movabs $0x657320746c757365,%rax
  4029be:	20 73 65 
  4029c1:	48 89 45 30          	mov    %rax,0x30(%rbp)
  4029c5:	c7 45 38 72 76 65 72 	movl   $0x72657672,0x38(%rbp)
  4029cc:	c6 45 3c 00          	movb   $0x0,0x3c(%rbp)
  4029d0:	89 df                	mov    %ebx,%edi
  4029d2:	e8 49 e3 ff ff       	callq  400d20 <close@plt>
  4029d7:	b8 ff ff ff ff       	mov    $0xffffffff,%eax
  4029dc:	e9 de fc ff ff       	jmpq   4026bf <submitr+0x2d7>
  4029e1:	ba 00 20 00 00       	mov    $0x2000,%edx
  4029e6:	48 8d b4 24 40 20 00 	lea    0x2040(%rsp),%rsi
  4029ed:	00 
  4029ee:	48 8d 7c 24 30       	lea    0x30(%rsp),%rdi
  4029f3:	e8 3b f8 ff ff       	callq  402233 <rio_readlineb>
  4029f8:	48 85 c0             	test   %rax,%rax
  4029fb:	0f 8e 90 00 00 00    	jle    402a91 <submitr+0x6a9>
  402a01:	44 8b 44 24 1c       	mov    0x1c(%rsp),%r8d
  402a06:	41 81 f8 c8 00 00 00 	cmp    $0xc8,%r8d
  402a0d:	0f 85 02 01 00 00    	jne    402b15 <submitr+0x72d>
  402a13:	48 8d b4 24 40 20 00 	lea    0x2040(%rsp),%rsi
  402a1a:	00 
  402a1b:	48 89 ef             	mov    %rbp,%rdi
  402a1e:	e8 8d e2 ff ff       	callq  400cb0 <strcpy@plt>
  402a23:	89 df                	mov    %ebx,%edi
  402a25:	e8 f6 e2 ff ff       	callq  400d20 <close@plt>
  402a2a:	bf c0 36 40 00       	mov    $0x4036c0,%edi
  402a2f:	b9 04 00 00 00       	mov    $0x4,%ecx
  402a34:	48 89 ee             	mov    %rbp,%rsi
  402a37:	f3 a6                	repz cmpsb %es:(%rdi),%ds:(%rsi)
  402a39:	0f 97 c0             	seta   %al
  402a3c:	1c 00                	sbb    $0x0,%al
  402a3e:	0f be c0             	movsbl %al,%eax
  402a41:	85 c0                	test   %eax,%eax
  402a43:	0f 84 76 fc ff ff    	je     4026bf <submitr+0x2d7>
  402a49:	bf c4 36 40 00       	mov    $0x4036c4,%edi
  402a4e:	b9 05 00 00 00       	mov    $0x5,%ecx
  402a53:	48 89 ee             	mov    %rbp,%rsi
  402a56:	f3 a6                	repz cmpsb %es:(%rdi),%ds:(%rsi)
  402a58:	0f 97 c0             	seta   %al
  402a5b:	1c 00                	sbb    $0x0,%al
  402a5d:	0f be c0             	movsbl %al,%eax
  402a60:	85 c0                	test   %eax,%eax
  402a62:	0f 84 57 fc ff ff    	je     4026bf <submitr+0x2d7>
  402a68:	bf c9 36 40 00       	mov    $0x4036c9,%edi
  402a6d:	b9 03 00 00 00       	mov    $0x3,%ecx
  402a72:	48 89 ee             	mov    %rbp,%rsi
  402a75:	f3 a6                	repz cmpsb %es:(%rdi),%ds:(%rsi)
  402a77:	0f 97 c0             	seta   %al
  402a7a:	1c 00                	sbb    $0x0,%al
  402a7c:	0f be c0             	movsbl %al,%eax
  402a7f:	85 c0                	test   %eax,%eax
  402a81:	0f 84 38 fc ff ff    	je     4026bf <submitr+0x2d7>
  402a87:	b8 ff ff ff ff       	mov    $0xffffffff,%eax
  402a8c:	e9 2e fc ff ff       	jmpq   4026bf <submitr+0x2d7>
  402a91:	48 b8 45 72 72 6f 72 	movabs $0x43203a726f727245,%rax
  402a98:	3a 20 43 
  402a9b:	48 ba 6c 69 65 6e 74 	movabs $0x6e7520746e65696c,%rdx
  402aa2:	20 75 6e 
  402aa5:	48 89 45 00          	mov    %rax,0x0(%rbp)
  402aa9:	48 89 55 08          	mov    %rdx,0x8(%rbp)
  402aad:	48 b8 61 62 6c 65 20 	movabs $0x206f7420656c6261,%rax
  402ab4:	74 6f 20 
  402ab7:	48 ba 72 65 61 64 20 	movabs $0x6174732064616572,%rdx
  402abe:	73 74 61 
  402ac1:	48 89 45 10          	mov    %rax,0x10(%rbp)
  402ac5:	48 89 55 18          	mov    %rdx,0x18(%rbp)
  402ac9:	48 b8 74 75 73 20 6d 	movabs $0x7373656d20737574,%rax
  402ad0:	65 73 73 
  402ad3:	48 ba 61 67 65 20 66 	movabs $0x6d6f726620656761,%rdx
  402ada:	72 6f 6d 
  402add:	48 89 45 20          	mov    %rax,0x20(%rbp)
  402ae1:	48 89 55 28          	mov    %rdx,0x28(%rbp)
  402ae5:	48 b8 20 72 65 73 75 	movabs $0x20746c7573657220,%rax
  402aec:	6c 74 20 
  402aef:	48 89 45 30          	mov    %rax,0x30(%rbp)
  402af3:	c7 45 38 73 65 72 76 	movl   $0x76726573,0x38(%rbp)
  402afa:	66 c7 45 3c 65 72    	movw   $0x7265,0x3c(%rbp)
  402b00:	c6 45 3e 00          	movb   $0x0,0x3e(%rbp)
  402b04:	89 df                	mov    %ebx,%edi
  402b06:	e8 15 e2 ff ff       	callq  400d20 <close@plt>
  402b0b:	b8 ff ff ff ff       	mov    $0xffffffff,%eax
  402b10:	e9 aa fb ff ff       	jmpq   4026bf <submitr+0x2d7>
  402b15:	4c 8d 8c 24 40 80 00 	lea    0x8040(%rsp),%r9
  402b1c:	00 
  402b1d:	b9 78 36 40 00       	mov    $0x403678,%ecx
  402b22:	48 c7 c2 ff ff ff ff 	mov    $0xffffffffffffffff,%rdx
  402b29:	be 01 00 00 00       	mov    $0x1,%esi
  402b2e:	48 89 ef             	mov    %rbp,%rdi
  402b31:	b8 00 00 00 00       	mov    $0x0,%eax
  402b36:	e8 25 e3 ff ff       	callq  400e60 <__sprintf_chk@plt>
  402b3b:	89 df                	mov    %ebx,%edi
  402b3d:	e8 de e1 ff ff       	callq  400d20 <close@plt>
  402b42:	b8 ff ff ff ff       	mov    $0xffffffff,%eax
  402b47:	e9 73 fb ff ff       	jmpq   4026bf <submitr+0x2d7>
  402b4c:	e8 8f e1 ff ff       	callq  400ce0 <__stack_chk_fail@plt>

0000000000402b51 <init_timeout>:
  402b51:	85 ff                	test   %edi,%edi
  402b53:	74 26                	je     402b7b <init_timeout+0x2a>
  402b55:	53                   	push   %rbx
  402b56:	89 fb                	mov    %edi,%ebx
  402b58:	85 ff                	test   %edi,%edi
  402b5a:	78 18                	js     402b74 <init_timeout+0x23>
  402b5c:	be 1c 21 40 00       	mov    $0x40211c,%esi
  402b61:	bf 0e 00 00 00       	mov    $0xe,%edi
  402b66:	e8 d5 e1 ff ff       	callq  400d40 <signal@plt>
  402b6b:	89 df                	mov    %ebx,%edi
  402b6d:	e8 9e e1 ff ff       	callq  400d10 <alarm@plt>
  402b72:	5b                   	pop    %rbx
  402b73:	c3                   	retq   
  402b74:	bb 00 00 00 00       	mov    $0x0,%ebx
  402b79:	eb e1                	jmp    402b5c <init_timeout+0xb>
  402b7b:	f3 c3                	repz retq 

0000000000402b7d <init_driver>:
  402b7d:	55                   	push   %rbp
  402b7e:	53                   	push   %rbx
  402b7f:	48 83 ec 28          	sub    $0x28,%rsp
  402b83:	48 89 fd             	mov    %rdi,%rbp
  402b86:	64 48 8b 04 25 28 00 	mov    %fs:0x28,%rax
  402b8d:	00 00 
  402b8f:	48 89 44 24 18       	mov    %rax,0x18(%rsp)
  402b94:	31 c0                	xor    %eax,%eax
  402b96:	be 01 00 00 00       	mov    $0x1,%esi
  402b9b:	bf 0d 00 00 00       	mov    $0xd,%edi
  402ba0:	e8 9b e1 ff ff       	callq  400d40 <signal@plt>
  402ba5:	be 01 00 00 00       	mov    $0x1,%esi
  402baa:	bf 1d 00 00 00       	mov    $0x1d,%edi
  402baf:	e8 8c e1 ff ff       	callq  400d40 <signal@plt>
  402bb4:	be 01 00 00 00       	mov    $0x1,%esi
  402bb9:	bf 1d 00 00 00       	mov    $0x1d,%edi
  402bbe:	e8 7d e1 ff ff       	callq  400d40 <signal@plt>
  402bc3:	ba 00 00 00 00       	mov    $0x0,%edx
  402bc8:	be 01 00 00 00       	mov    $0x1,%esi
  402bcd:	bf 02 00 00 00       	mov    $0x2,%edi
  402bd2:	e8 99 e2 ff ff       	callq  400e70 <socket@plt>
  402bd7:	85 c0                	test   %eax,%eax
  402bd9:	0f 88 9c 00 00 00    	js     402c7b <init_driver+0xfe>
  402bdf:	89 c3                	mov    %eax,%ebx
  402be1:	bf cc 36 40 00       	mov    $0x4036cc,%edi
  402be6:	e8 65 e1 ff ff       	callq  400d50 <gethostbyname@plt>
  402beb:	48 85 c0             	test   %rax,%rax
  402bee:	0f 84 d3 00 00 00    	je     402cc7 <init_driver+0x14a>
  402bf4:	48 c7 44 24 02 00 00 	movq   $0x0,0x2(%rsp)
  402bfb:	00 00 
  402bfd:	c7 44 24 0a 00 00 00 	movl   $0x0,0xa(%rsp)
  402c04:	00 
  402c05:	66 c7 44 24 0e 00 00 	movw   $0x0,0xe(%rsp)
  402c0c:	66 c7 04 24 02 00    	movw   $0x2,(%rsp)
  402c12:	48 63 50 14          	movslq 0x14(%rax),%rdx
  402c16:	48 8b 40 18          	mov    0x18(%rax),%rax
  402c1a:	48 8b 30             	mov    (%rax),%rsi
  402c1d:	48 8d 7c 24 04       	lea    0x4(%rsp),%rdi
  402c22:	b9 0c 00 00 00       	mov    $0xc,%ecx
  402c27:	e8 34 e1 ff ff       	callq  400d60 <__memmove_chk@plt>
  402c2c:	66 c7 44 24 02 3c 9a 	movw   $0x9a3c,0x2(%rsp)
  402c33:	ba 10 00 00 00       	mov    $0x10,%edx
  402c38:	48 89 e6             	mov    %rsp,%rsi
  402c3b:	89 df                	mov    %ebx,%edi
  402c3d:	e8 fe e1 ff ff       	callq  400e40 <connect@plt>
  402c42:	85 c0                	test   %eax,%eax
  402c44:	0f 88 e5 00 00 00    	js     402d2f <init_driver+0x1b2>
  402c4a:	89 df                	mov    %ebx,%edi
  402c4c:	e8 cf e0 ff ff       	callq  400d20 <close@plt>
  402c51:	66 c7 45 00 4f 4b    	movw   $0x4b4f,0x0(%rbp)
  402c57:	c6 45 02 00          	movb   $0x0,0x2(%rbp)
  402c5b:	b8 00 00 00 00       	mov    $0x0,%eax
  402c60:	48 8b 4c 24 18       	mov    0x18(%rsp),%rcx
  402c65:	64 48 33 0c 25 28 00 	xor    %fs:0x28,%rcx
  402c6c:	00 00 
  402c6e:	0f 85 0e 01 00 00    	jne    402d82 <init_driver+0x205>
  402c74:	48 83 c4 28          	add    $0x28,%rsp
  402c78:	5b                   	pop    %rbx
  402c79:	5d                   	pop    %rbp
  402c7a:	c3                   	retq   
  402c7b:	48 b8 45 72 72 6f 72 	movabs $0x43203a726f727245,%rax
  402c82:	3a 20 43 
  402c85:	48 ba 6c 69 65 6e 74 	movabs $0x6e7520746e65696c,%rdx
  402c8c:	20 75 6e 
  402c8f:	48 89 45 00          	mov    %rax,0x0(%rbp)
  402c93:	48 89 55 08          	mov    %rdx,0x8(%rbp)
  402c97:	48 b8 61 62 6c 65 20 	movabs $0x206f7420656c6261,%rax
  402c9e:	74 6f 20 
  402ca1:	48 ba 63 72 65 61 74 	movabs $0x7320657461657263,%rdx
  402ca8:	65 20 73 
  402cab:	48 89 45 10          	mov    %rax,0x10(%rbp)
  402caf:	48 89 55 18          	mov    %rdx,0x18(%rbp)
  402cb3:	c7 45 20 6f 63 6b 65 	movl   $0x656b636f,0x20(%rbp)
  402cba:	66 c7 45 24 74 00    	movw   $0x74,0x24(%rbp)
  402cc0:	b8 ff ff ff ff       	mov    $0xffffffff,%eax
  402cc5:	eb 99                	jmp    402c60 <init_driver+0xe3>
  402cc7:	48 b8 45 72 72 6f 72 	movabs $0x44203a726f727245,%rax
  402cce:	3a 20 44 
  402cd1:	48 ba 4e 53 20 69 73 	movabs $0x6e7520736920534e,%rdx
  402cd8:	20 75 6e 
  402cdb:	48 89 45 00          	mov    %rax,0x0(%rbp)
  402cdf:	48 89 55 08          	mov    %rdx,0x8(%rbp)
  402ce3:	48 b8 61 62 6c 65 20 	movabs $0x206f7420656c6261,%rax
  402cea:	74 6f 20 
  402ced:	48 ba 72 65 73 6f 6c 	movabs $0x2065766c6f736572,%rdx
  402cf4:	76 65 20 
  402cf7:	48 89 45 10          	mov    %rax,0x10(%rbp)
  402cfb:	48 89 55 18          	mov    %rdx,0x18(%rbp)
  402cff:	48 b8 73 65 72 76 65 	movabs $0x6120726576726573,%rax
  402d06:	72 20 61 
  402d09:	48 89 45 20          	mov    %rax,0x20(%rbp)
  402d0d:	c7 45 28 64 64 72 65 	movl   $0x65726464,0x28(%rbp)
  402d14:	66 c7 45 2c 73 73    	movw   $0x7373,0x2c(%rbp)
  402d1a:	c6 45 2e 00          	movb   $0x0,0x2e(%rbp)
  402d1e:	89 df                	mov    %ebx,%edi
  402d20:	e8 fb df ff ff       	callq  400d20 <close@plt>
  402d25:	b8 ff ff ff ff       	mov    $0xffffffff,%eax
  402d2a:	e9 31 ff ff ff       	jmpq   402c60 <init_driver+0xe3>
  402d2f:	48 b8 45 72 72 6f 72 	movabs $0x55203a726f727245,%rax
  402d36:	3a 20 55 
  402d39:	48 ba 6e 61 62 6c 65 	movabs $0x6f7420656c62616e,%rdx
  402d40:	20 74 6f 
  402d43:	48 89 45 00          	mov    %rax,0x0(%rbp)
  402d47:	48 89 55 08          	mov    %rdx,0x8(%rbp)
  402d4b:	48 b8 20 63 6f 6e 6e 	movabs $0x7463656e6e6f6320,%rax
  402d52:	65 63 74 
  402d55:	48 ba 20 74 6f 20 73 	movabs $0x76726573206f7420,%rdx
  402d5c:	65 72 76 
  402d5f:	48 89 45 10          	mov    %rax,0x10(%rbp)
  402d63:	48 89 55 18          	mov    %rdx,0x18(%rbp)
  402d67:	66 c7 45 20 65 72    	movw   $0x7265,0x20(%rbp)
  402d6d:	c6 45 22 00          	movb   $0x0,0x22(%rbp)
  402d71:	89 df                	mov    %ebx,%edi
  402d73:	e8 a8 df ff ff       	callq  400d20 <close@plt>
  402d78:	b8 ff ff ff ff       	mov    $0xffffffff,%eax
  402d7d:	e9 de fe ff ff       	jmpq   402c60 <init_driver+0xe3>
  402d82:	e8 59 df ff ff       	callq  400ce0 <__stack_chk_fail@plt>

0000000000402d87 <driver_post>:
  402d87:	53                   	push   %rbx
  402d88:	4c 89 cb             	mov    %r9,%rbx
  402d8b:	45 85 c0             	test   %r8d,%r8d
  402d8e:	75 18                	jne    402da8 <driver_post+0x21>
  402d90:	48 85 ff             	test   %rdi,%rdi
  402d93:	74 05                	je     402d9a <driver_post+0x13>
  402d95:	80 3f 00             	cmpb   $0x0,(%rdi)
  402d98:	75 35                	jne    402dcf <driver_post+0x48>
  402d9a:	66 c7 03 4f 4b       	movw   $0x4b4f,(%rbx)
  402d9f:	c6 43 02 00          	movb   $0x0,0x2(%rbx)
  402da3:	44 89 c0             	mov    %r8d,%eax
  402da6:	5b                   	pop    %rbx
  402da7:	c3                   	retq   
  402da8:	48 89 ca             	mov    %rcx,%rdx
  402dab:	be e4 36 40 00       	mov    $0x4036e4,%esi
  402db0:	bf 01 00 00 00       	mov    $0x1,%edi
  402db5:	b8 00 00 00 00       	mov    $0x0,%eax
  402dba:	e8 21 e0 ff ff       	callq  400de0 <__printf_chk@plt>
  402dbf:	66 c7 03 4f 4b       	movw   $0x4b4f,(%rbx)
  402dc4:	c6 43 02 00          	movb   $0x0,0x2(%rbx)
  402dc8:	b8 00 00 00 00       	mov    $0x0,%eax
  402dcd:	eb d7                	jmp    402da6 <driver_post+0x1f>
  402dcf:	48 83 ec 08          	sub    $0x8,%rsp
  402dd3:	41 51                	push   %r9
  402dd5:	49 89 c9             	mov    %rcx,%r9
  402dd8:	49 89 d0             	mov    %rdx,%r8
  402ddb:	48 89 f9             	mov    %rdi,%rcx
  402dde:	48 89 f2             	mov    %rsi,%rdx
  402de1:	be 9a 3c 00 00       	mov    $0x3c9a,%esi
  402de6:	bf cc 36 40 00       	mov    $0x4036cc,%edi
  402deb:	e8 f8 f5 ff ff       	callq  4023e8 <submitr>
  402df0:	48 83 c4 10          	add    $0x10,%rsp
  402df4:	eb b0                	jmp    402da6 <driver_post+0x1f>

0000000000402df6 <check>:
  402df6:	89 f8                	mov    %edi,%eax
  402df8:	c1 e8 1c             	shr    $0x1c,%eax
  402dfb:	85 c0                	test   %eax,%eax
  402dfd:	74 1d                	je     402e1c <check+0x26>
  402dff:	b9 00 00 00 00       	mov    $0x0,%ecx
  402e04:	83 f9 1f             	cmp    $0x1f,%ecx
  402e07:	7f 0d                	jg     402e16 <check+0x20>
  402e09:	89 f8                	mov    %edi,%eax
  402e0b:	d3 e8                	shr    %cl,%eax
  402e0d:	3c 0a                	cmp    $0xa,%al
  402e0f:	74 11                	je     402e22 <check+0x2c>
  402e11:	83 c1 08             	add    $0x8,%ecx
  402e14:	eb ee                	jmp    402e04 <check+0xe>
  402e16:	b8 01 00 00 00       	mov    $0x1,%eax
  402e1b:	c3                   	retq   
  402e1c:	b8 00 00 00 00       	mov    $0x0,%eax
  402e21:	c3                   	retq   
  402e22:	b8 00 00 00 00       	mov    $0x0,%eax
  402e27:	c3                   	retq   

0000000000402e28 <gencookie>:
  402e28:	53                   	push   %rbx
  402e29:	83 c7 01             	add    $0x1,%edi
  402e2c:	e8 5f de ff ff       	callq  400c90 <srandom@plt>
  402e31:	e8 6a df ff ff       	callq  400da0 <random@plt>
  402e36:	89 c3                	mov    %eax,%ebx
  402e38:	89 c7                	mov    %eax,%edi
  402e3a:	e8 b7 ff ff ff       	callq  402df6 <check>
  402e3f:	85 c0                	test   %eax,%eax
  402e41:	74 ee                	je     402e31 <gencookie+0x9>
  402e43:	89 d8                	mov    %ebx,%eax
  402e45:	5b                   	pop    %rbx
  402e46:	c3                   	retq   
  402e47:	66 0f 1f 84 00 00 00 	nopw   0x0(%rax,%rax,1)
  402e4e:	00 00 

0000000000402e50 <__libc_csu_init>:
  402e50:	41 57                	push   %r15
  402e52:	41 56                	push   %r14
  402e54:	49 89 d7             	mov    %rdx,%r15
  402e57:	41 55                	push   %r13
  402e59:	41 54                	push   %r12
  402e5b:	4c 8d 25 ae 1f 20 00 	lea    0x201fae(%rip),%r12        # 604e10 <__frame_dummy_init_array_entry>
  402e62:	55                   	push   %rbp
  402e63:	48 8d 2d ae 1f 20 00 	lea    0x201fae(%rip),%rbp        # 604e18 <__init_array_end>
  402e6a:	53                   	push   %rbx
  402e6b:	41 89 fd             	mov    %edi,%r13d
  402e6e:	49 89 f6             	mov    %rsi,%r14
  402e71:	4c 29 e5             	sub    %r12,%rbp
  402e74:	48 83 ec 08          	sub    $0x8,%rsp
  402e78:	48 c1 fd 03          	sar    $0x3,%rbp
  402e7c:	e8 c7 dd ff ff       	callq  400c48 <_init>
  402e81:	48 85 ed             	test   %rbp,%rbp
  402e84:	74 20                	je     402ea6 <__libc_csu_init+0x56>
  402e86:	31 db                	xor    %ebx,%ebx
  402e88:	0f 1f 84 00 00 00 00 	nopl   0x0(%rax,%rax,1)
  402e8f:	00 
  402e90:	4c 89 fa             	mov    %r15,%rdx
  402e93:	4c 89 f6             	mov    %r14,%rsi
  402e96:	44 89 ef             	mov    %r13d,%edi
  402e99:	41 ff 14 dc          	callq  *(%r12,%rbx,8)
  402e9d:	48 83 c3 01          	add    $0x1,%rbx
  402ea1:	48 39 dd             	cmp    %rbx,%rbp
  402ea4:	75 ea                	jne    402e90 <__libc_csu_init+0x40>
  402ea6:	48 83 c4 08          	add    $0x8,%rsp
  402eaa:	5b                   	pop    %rbx
  402eab:	5d                   	pop    %rbp
  402eac:	41 5c                	pop    %r12
  402eae:	41 5d                	pop    %r13
  402eb0:	41 5e                	pop    %r14
  402eb2:	41 5f                	pop    %r15
  402eb4:	c3                   	retq   
  402eb5:	90                   	nop
  402eb6:	66 2e 0f 1f 84 00 00 	nopw   %cs:0x0(%rax,%rax,1)
  402ebd:	00 00 00 

0000000000402ec0 <__libc_csu_fini>:
  402ec0:	f3 c3                	repz retq 

Disassembly of section .fini:

0000000000402ec4 <_fini>:
  402ec4:	48 83 ec 08          	sub    $0x8,%rsp
  402ec8:	48 83 c4 08          	add    $0x8,%rsp
  402ecc:	c3                   	retq   
